Archive member included because of file (symbol)

c:\programs\hc11\gnu\lib\gcc-lib\m6811-elf\3.0.4\libgcc.a(_mulhi3.o)
                              string.o (___mulhi3)
c:\programs\hc11\gnu\lib\gcc-lib\m6811-elf\3.0.4\libgcc.a(_memcpy.o)
                              timer.o (memcpy)
c:\programs\hc11\gnu\lib\gcc-lib\m6811-elf\3.0.4\libgcc.a(_regs_min.o)
                              stress_test.o (_.tmp)
c:\programs\hc11\gnu\lib\gcc-lib\m6811-elf\3.0.4\libgcc.a(_regs_frame.o)
                              serial.o (_.frame)

Allocating common symbols
Common symbol       size              file

prt                 0x14              stress_test.o
copier              0x1e              stress_test.o
empl_tid            0x1               stress_test.o
ctrl_tid            0x1               stress_test.o
poolstats           0xc               stress_test.o
pres_tid            0x1               stress_test.o
stud_tid            0x1               stress_test.o
dbug_tid            0x1               stress_test.o
mngr_tid            0x1               stress_test.o

Memory Configuration

Name             Origin             Length             Attributes
page0            0x00000040         0x000000c0         rw
nothing1         0x00000100         0x00000f00
registers        0x00001000         0x00000040         rw
nothing2         0x00001040         0x00006fc0
rom              0x00008000         0x00003fd6         xrw
specvect         0x0000bfd6         0x0000002a         r
ram              0x0000c000         0x00003fd6         rw
normvect         0x0000ffd6         0x0000002a         rw
*default*        0x00000000         0xffffffff

Linker script and memory map


.specvect       0x0000bfd6       0x2a
                0x0000bfd6                __specvect_start = .
 *(.specvect)
 .specvect      0x0000bfd6       0x2a vectors.o
                0x0000c000                __specvect_end = .

.normvect       0x0000ffd6       0x2a
                0x0000ffd6                __normvect_start = .
 *(.normvect)
 .normvect      0x0000ffd6       0x2a vectors.o
                0x00010000                __normvect_end = .

.text           0x00008000     0x1f22
                0x00008000                __text_start = .
 *(.text)
 .text          0x00008000      0x769 stress_test.o
                0x000080b6                control
                0x000081b2                president
                0x00008254                manager
                0x000082cb                employee
                0x00008090                use_copier
                0x00008000                assert_lights
                0x00008342                student
                0x000086c8                main
                0x00008009                busy_work
 .text          0x00008769      0x289 serial.o
                0x00008831                serial_recv_string
                0x00008820                serial_recv
                0x000087f9                serial_send_string
                0x00008769                serial_init
                0x000087f0                serial_send_byte
 .text          0x000089f2      0x3c9 string.o
                0x00008a27                string_IsHexDigit
                0x00008b39                string_IntegerToString
                0x00008c9c                string_HexToInteger
                0x00008d87                string_SkipSpaces
                0x00008a4a                string_DigitToInteger
                0x000089fd                string_IsNumber
                0x00008a55                string_StringToInteger
                0x00008a1a                string_IsDigit
                0x00008d36                string_NextWord
                0x00008c6b                string_HexDigitToInteger
                0x00008bf8                string_IntegerToHex
                0x000089f2                string_IsSpace
                0x00008cd5                string_Copy
 .text          0x00008dbb       0xa0 clock.o
                0x00008e07                clock_add_sec
                0x00008dbb                clock_reset
                0x00008e08                clock_compare
                0x00008dc5                clock_add_ms
 .text          0x00008e5b      0x321 memory.o
                0x00008e5b                presto_memory_allocate
                0x00008fd4                memory_debug
                0x00008f5a                presto_memory_free
                0x0000903d                kernel_memory_init
 .text          0x0000917c      0x30a semaphore.o
                0x000092eb                presto_semaphore_wait
                0x000091fa                presto_semaphore_request
                0x000093a9                kernel_semaphore_init
                0x0000917c                presto_semaphore_init
                0x000092fd                presto_semaphore_release
 .text          0x00009486      0x1ef timer.o
                0x00009527                presto_timer_stop
                0x0000952c                kernel_master_clock_start
                0x00009486                presto_timer_start
                0x000094f9                presto_timer_wait
                0x0000952b                kernel_timer_init
                0x0000953f                timer_isr
 .text          0x00009675      0x1ce mail.o
                0x000096f6                presto_mail_send_to_box
                0x00009795                presto_mail_wait
                0x000096d1                presto_mail_send_to_task
                0x00009675                presto_mailbox_init
                0x000096ac                presto_mailbox_default
                0x000097a6                presto_mail_get
                0x000096c4                presto_envelope_message
                0x000096c8                presto_envelope_payload
                0x000096cc                presto_envelope_sender
                0x00009831                kernel_mail_init
 .text          0x00009843      0x43c kernel.o
                0x00009afc                kernel_trigger_set_noswitch
                0x00009843                presto_init
                0x00009993                presto_scheduler_start
                0x00009ad5                presto_trigger_poll
                0x000098c0                presto_task_create
                0x000099ce                presto_priority_set
                0x00009ac9                presto_trigger_clear
                0x000099c6                presto_priority_get
                0x00009ab8                presto_trigger_set
                0x00009b0d                kernel_current_task
                0x00009a2b                presto_priority_restore
                0x00009b14                kernel_context_switch
                0x000099ff                presto_priority_override
                0x00009a55                presto_wait
                0x00009add                presto_trigger_send
                0x00009be6                context_switch_isr
 .text          0x00009c7f       0x47 boot.o
                0x00009c7f                premain
                0x00009cc4                exit
 .text          0x00009cc6       0xa2 error.o
                0x00009cf8                error_fatal
                0x00009d0d                error_crash
                0x00009cc6                show_one_byte
                0x00009d0f                error_address
 .text          0x00009d68       0x57 cpu_timer.o
                0x00009dad                hwtimer_restart
                0x00009d68                hwtimer_start
 .text          0x00009dbf       0xf7 vectors.o
                0x00009df9                error_TOC3_isr
                0x00009e07                error_TOC1_isr
                0x00009e00                error_TOC2_isr
                0x00009dc1                error_isr
                0x00009e3f                error_COP_isr
                0x00009dd6                error_PAIE_isr
                0x00009e46                error_ILLOP_isr
                0x00009e31                error_XIRQ_isr
                0x00009dc8                error_SCI_isr
                0x00009e5b                illop_isr
                0x00009df2                error_TOC4_isr
                0x00009e7c                init_interrupts
                0x00009e2a                error_IRQ_isr
                0x00009de4                error_TOF_isr
                0x00009e15                error_TIC2_isr
                0x00009e23                error_RTI_isr
                0x00009e1c                error_TIC1_isr
                0x00009dbf                inert_isr
                0x00009dcf                error_SPI_isr
                0x00009deb                error_TOC5_isr
                0x00009e6a                set_interrupt
                0x00009e38                error_SWI_isr
                0x00009e54                error_RESET_isr
                0x00009e0e                error_TIC3_isr
                0x00009e4d                error_CLM_isr
                0x00009ddd                error_PAO_isr
 .text          0x00009eb6       0x2f crt0.o
                0x00009eb6                _start
 .text          0x00009ee5       0x18 c:\programs\hc11\gnu\lib\gcc-lib\m6811-elf\3.0.4\libgcc.a(_mulhi3.o)
                0x00009ee5                ___mulhi3
 .text          0x00009efd       0x25 c:\programs\hc11\gnu\lib\gcc-lib\m6811-elf\3.0.4\libgcc.a(_memcpy.o)
                0x00009efd                memcpy
                0x00009efd                __memcpy
                0x00009f22                __text_end = .

.strings        0x00009f22        0x0
                0x00009f22                __strings_start = .
 *(.strings)
                0x00009f22                __strings_end = .

.rodata         0x00009f22        0x0
                0x00009f22                __rodata_start = .
 *(.rodata)
                0x00009f22                __rodata_end = .

.end_of_rom     0x00009f22        0x0
                0x00009f22                __idata_start = .

.data           0x0000c000       0xe0 load address 0x00009f22
                0x0000c000                __data_start = .
 *(.data)
 .data          0x0000c000       0xd7 stress_test.o
                0x0000c000                lights
 .data          0x0000c0d7        0x2 timer.o
 .data          0x0000c0d9        0x7 kernel.o
                0x0000c0e0                __data_end = .

.bss            0x0000c0e0      0x5de
                0x0000c0e0                __bss_start = .
 *(.bss)
 .bss           0x0000c0e0      0x3ed stress_test.o
 .bss           0x0000c4cd      0x127 serial.o
 .bss           0x0000c5f4        0x6 timer.o
 .bss           0x0000c5fa        0xc mail.o
 .bss           0x0000c606       0xb2 kernel.o
 .bss           0x0000c6b8        0x2 cpu_timer.o
 .bss           0x0000c6ba        0x4 vectors.o
                0x0000c6be                __bss_end = .

.softregs       0x00000040        0x8
 .softregs      0x00000040        0x6 c:\programs\hc11\gnu\lib\gcc-lib\m6811-elf\3.0.4\libgcc.a(_regs_min.o)
 .softregs      0x00000046        0x2 c:\programs\hc11\gnu\lib\gcc-lib\m6811-elf\3.0.4\libgcc.a(_regs_frame.o)
                0x00000046                _.frame

.common         0x0000c6be       0x44
                0x0000c6be                __common_start = .
 *(COMMON)
 COMMON         0x0000c6be       0x44 stress_test.o
                                  0x0 (size before relaxing)
                0x0000c6be                prt
                0x0000c6d2                copier
                0x0000c6f0                empl_tid
                0x0000c6f1                ctrl_tid
                0x0000c6f2                poolstats
                0x0000c6fe                pres_tid
                0x0000c6ff                stud_tid
                0x0000c700                dbug_tid
                0x0000c701                mngr_tid
                0x0000c702                __common_end = .

.stack          0x0000c702       0x40
                0x0000c702                __stack_start = .
 *(.stack)
 .stack         0x0000c702       0x40 boot.o
                0x0000c702                initial_stack
                0x0000c742                __stack_end = .

.heap           0x0000c742      0x20c
                0x0000c742                __heap_start = .
 *(.heap)
 .heap          0x0000c742      0x20c memory.o
                0x0000c94e                __heap_end = .

/DISCARD/
 *(.comment)
 *(.debug_abbrev)
 *(.debug_aranges)
 *(.debug_info)
 *(.debug_line)
 *(.debug_pubnames)
                0x0000a002                __idata_end = ((__data_end - __data_start) + __idata_start)
                0x00000000                _.tmp = 0x0
                0x00000002                _.z = 0x2
                0x00000004                _.xy = 0x4
LOAD stress_test.o
LOAD serial.o
LOAD string.o
LOAD clock.o
LOAD memory.o
LOAD semaphore.o
LOAD timer.o
LOAD mail.o
LOAD kernel.o
LOAD boot.o
LOAD error.o
LOAD cpu_timer.o
LOAD vectors.o
LOAD crt0.o
LOAD c:\programs\hc11\gnu\lib\gcc-lib\m6811-elf\3.0.4\libgcc.a
OUTPUT(presto.elf elf32-m68hc11)
LOAD linker stubs

Cross Reference Table

Symbol                                            File
_.frame                                           c:\programs\hc11\gnu\lib\gcc-lib\m6811-elf\3.0.4\libgcc.a(_regs_frame.o)
                                                  serial.o
_.tmp                                             c:\programs\hc11\gnu\lib\gcc-lib\m6811-elf\3.0.4\libgcc.a(_regs_min.o)
                                                  c:\programs\hc11\gnu\lib\gcc-lib\m6811-elf\3.0.4\libgcc.a(_mulhi3.o)
                                                  vectors.o
                                                  cpu_timer.o
                                                  kernel.o
                                                  timer.o
                                                  semaphore.o
                                                  memory.o
                                                  clock.o
                                                  string.o
                                                  serial.o
                                                  stress_test.o
_.xy                                              c:\programs\hc11\gnu\lib\gcc-lib\m6811-elf\3.0.4\libgcc.a(_regs_min.o)
                                                  vectors.o
                                                  cpu_timer.o
                                                  kernel.o
                                                  timer.o
                                                  semaphore.o
                                                  memory.o
                                                  clock.o
                                                  string.o
                                                  serial.o
_.z                                               c:\programs\hc11\gnu\lib\gcc-lib\m6811-elf\3.0.4\libgcc.a(_regs_min.o)
                                                  vectors.o
                                                  kernel.o
                                                  timer.o
                                                  semaphore.o
                                                  memory.o
                                                  clock.o
                                                  string.o
                                                  serial.o
___mulhi3                                         c:\programs\hc11\gnu\lib\gcc-lib\m6811-elf\3.0.4\libgcc.a(_mulhi3.o)
                                                  cpu_timer.o
                                                  string.o
__bss_end                                         crt0.o
__bss_start                                       crt0.o
__data_start                                      crt0.o
__idata_end                                       crt0.o
__idata_start                                     crt0.o
__memcpy                                          c:\programs\hc11\gnu\lib\gcc-lib\m6811-elf\3.0.4\libgcc.a(_memcpy.o)
__stack_end                                       crt0.o
_start                                            crt0.o
                                                  vectors.o
assert_lights                                     stress_test.o
busy_work                                         stress_test.o
clock_add_ms                                      clock.o
                                                  timer.o
clock_add_sec                                     clock.o
clock_compare                                     clock.o
                                                  timer.o
clock_reset                                       clock.o
                                                  timer.o
context_switch_isr                                kernel.o
control                                           stress_test.o
copier                                            stress_test.o
ctrl_tid                                          stress_test.o
dbug_tid                                          stress_test.o
empl_tid                                          stress_test.o
employee                                          stress_test.o
error_CLM_isr                                     vectors.o
error_COP_isr                                     vectors.o
error_ILLOP_isr                                   vectors.o
error_IRQ_isr                                     vectors.o
error_PAIE_isr                                    vectors.o
error_PAO_isr                                     vectors.o
error_RESET_isr                                   vectors.o
error_RTI_isr                                     vectors.o
error_SCI_isr                                     vectors.o
error_SPI_isr                                     vectors.o
error_SWI_isr                                     vectors.o
error_TIC1_isr                                    vectors.o
error_TIC2_isr                                    vectors.o
error_TIC3_isr                                    vectors.o
error_TOC1_isr                                    vectors.o
error_TOC2_isr                                    vectors.o
error_TOC3_isr                                    vectors.o
error_TOC4_isr                                    vectors.o
error_TOC5_isr                                    vectors.o
error_TOF_isr                                     vectors.o
error_XIRQ_isr                                    vectors.o
error_address                                     error.o
                                                  vectors.o
error_crash                                       error.o
error_fatal                                       error.o
                                                  vectors.o
                                                  kernel.o
                                                  mail.o
                                                  semaphore.o
                                                  memory.o
                                                  stress_test.o
error_isr                                         vectors.o
exit                                              boot.o
hwtimer_restart                                   cpu_timer.o
                                                  timer.o
hwtimer_start                                     cpu_timer.o
                                                  timer.o
illop_isr                                         vectors.o
inert_isr                                         vectors.o
init_interrupts                                   vectors.o
                                                  boot.o
initial_stack                                     boot.o
                                                  stress_test.o
kernel_context_switch                             kernel.o
                                                  mail.o
                                                  timer.o
                                                  semaphore.o
kernel_current_task                               kernel.o
                                                  mail.o
                                                  timer.o
                                                  semaphore.o
kernel_mail_init                                  mail.o
                                                  kernel.o
kernel_master_clock_start                         timer.o
                                                  kernel.o
kernel_memory_init                                memory.o
                                                  kernel.o
kernel_semaphore_init                             semaphore.o
                                                  kernel.o
kernel_timer_init                                 timer.o
                                                  kernel.o
kernel_trigger_set_noswitch                       kernel.o
                                                  mail.o
                                                  timer.o
                                                  semaphore.o
lights                                            stress_test.o
main                                              stress_test.o
                                                  crt0.o
manager                                           stress_test.o
memcpy                                            c:\programs\hc11\gnu\lib\gcc-lib\m6811-elf\3.0.4\libgcc.a(_memcpy.o)
                                                  timer.o
memory_debug                                      memory.o
                                                  stress_test.o
mngr_tid                                          stress_test.o
poolstats                                         stress_test.o
premain                                           boot.o
                                                  crt0.o
pres_tid                                          stress_test.o
president                                         stress_test.o
presto_envelope_message                           mail.o
                                                  stress_test.o
presto_envelope_payload                           mail.o
presto_envelope_sender                            mail.o
presto_init                                       kernel.o
                                                  stress_test.o
presto_mail_get                                   mail.o
                                                  stress_test.o
presto_mail_send_to_box                           mail.o
presto_mail_send_to_task                          mail.o
                                                  stress_test.o
presto_mail_wait                                  mail.o
                                                  stress_test.o
presto_mailbox_default                            mail.o
presto_mailbox_init                               mail.o
                                                  stress_test.o
presto_memory_allocate                            memory.o
                                                  stress_test.o
presto_memory_free                                memory.o
                                                  stress_test.o
presto_priority_get                               kernel.o
                                                  timer.o
                                                  semaphore.o
presto_priority_override                          kernel.o
                                                  semaphore.o
presto_priority_restore                           kernel.o
                                                  semaphore.o
presto_priority_set                               kernel.o
presto_scheduler_start                            kernel.o
                                                  stress_test.o
presto_semaphore_init                             semaphore.o
                                                  stress_test.o
presto_semaphore_release                          semaphore.o
                                                  stress_test.o
presto_semaphore_request                          semaphore.o
presto_semaphore_wait                             semaphore.o
                                                  stress_test.o
presto_task_create                                kernel.o
                                                  stress_test.o
presto_timer_start                                timer.o
                                                  stress_test.o
presto_timer_stop                                 timer.o
                                                  stress_test.o
presto_timer_wait                                 timer.o
                                                  stress_test.o
presto_trigger_clear                              kernel.o
                                                  serial.o
                                                  stress_test.o
presto_trigger_poll                               kernel.o
                                                  stress_test.o
presto_trigger_send                               kernel.o
                                                  serial.o
                                                  stress_test.o
presto_trigger_set                                kernel.o
presto_wait                                       kernel.o
                                                  mail.o
                                                  timer.o
                                                  semaphore.o
                                                  serial.o
                                                  stress_test.o
prt                                               stress_test.o
serial_init                                       serial.o
                                                  stress_test.o
serial_recv                                       serial.o
serial_recv_string                                serial.o
serial_send_byte                                  serial.o
serial_send_string                                serial.o
                                                  stress_test.o
set_interrupt                                     vectors.o
                                                  cpu_timer.o
                                                  kernel.o
                                                  serial.o
show_one_byte                                     error.o
string_Copy                                       string.o
string_DigitToInteger                             string.o
string_HexDigitToInteger                          string.o
string_HexToInteger                               string.o
string_IntegerToHex                               string.o
                                                  stress_test.o
string_IntegerToString                            string.o
                                                  stress_test.o
string_IsDigit                                    string.o
string_IsHexDigit                                 string.o
string_IsNumber                                   string.o
string_IsSpace                                    string.o
string_NextWord                                   string.o
string_SkipSpaces                                 string.o
string_StringToInteger                            string.o
stud_tid                                          stress_test.o
student                                           stress_test.o
timer_isr                                         timer.o
use_copier                                        stress_test.o
