
presto.elf:     file format elf32-m68hc11

Disassembly of section .text:

00008000 <assert_lights>:
    8000:	ce 7f ff    	ldx	#7fff <_.frame+0x7fb9>
    8003:	f6 c0 00    	ldab	c000 <__specvect_end>
    8006:	e7 00       	stab	0,x

00008008 <.LM3>:
    8008:	39          	rts

00008009 <busy_work>:
    8009:	30          	tsx
    800a:	8f          	xgdx
    800b:	c3 ff f0    	addd	#fff0 <__normvect_start+0x1a>
    800e:	8f          	xgdx
    800f:	35          	txs
    8010:	30          	tsx
    8011:	e7 0c       	stab	12,x

00008013 <.LBB2>:
    8013:	6f 0e       	clr	14,x
    8015:	6f 0d       	clr	13,x

00008017 <.LM6>:
    8017:	e6 0e       	ldab	14,x
    8019:	e7 0f       	stab	15,x

0000801b <.LM7>:
    801b:	c6 80       	ldab	#128
    801d:	37          	pshb
    801e:	34          	des
    801f:	18 ce 00 19 	ldy	#19 <_.xy+0x15>
    8023:	18 3c       	pshy
    8025:	30          	tsx
    8026:	ee 11       	ldx	17,x
    8028:	3c          	pshx
    8029:	18 ce 00 06 	ldy	#6 <_.xy+0x2>
    802d:	18 8f       	xgdy
    802f:	9f 00       	sts	*0 <_.tmp>
    8031:	d3 00       	addd	*0 <_.tmp>
    8033:	c3 00 01    	addd	#1 <_.tmp+0x1>
    8036:	bd 97 2d    	jsr	972d <presto_timer_start>

00008039 <.LM8>:
    8039:	38          	pulx
    803a:	38          	pulx
    803b:	38          	pulx
    803c:	20 2b       	bra	8069 <.L3>

0000803e <.L8>:
    803e:	c6 80       	ldab	#128
    8040:	bd 8d ad    	jsr	8dad <presto_trigger_poll>
    8043:	5d          	tstb
    8044:	27 23       	beq	8069 <.L3>

00008046 <.LM10>:
    8046:	c6 80       	ldab	#128
    8048:	bd 8d a4    	jsr	8da4 <presto_trigger_clear>

0000804b <.LM11>:
    804b:	30          	tsx
    804c:	6c 0f       	inc	15,x

0000804e <.LM12>:
    804e:	e6 0f       	ldab	15,x
    8050:	c1 04       	cmpb	#4
    8052:	26 0a       	bne	805e <.L7>

00008054 <.LM13>:
    8054:	6f 0f       	clr	15,x

00008056 <.LM14>:
    8056:	1a ee 0d    	ldy	13,x
    8059:	18 08       	iny
    805b:	1a ef 0d    	sty	13,x

0000805e <.L7>:
    805e:	30          	tsx
    805f:	e6 0c       	ldab	12,x
    8061:	f8 c0 00    	eorb	c000 <__specvect_end>
    8064:	f7 c0 00    	stab	c000 <__specvect_end>

00008067 <.LM16>:
    8067:	8d 97       	bsr	8000 <assert_lights>

00008069 <.L3>:
    8069:	18 30       	tsy
    806b:	18 ec 0d    	ldd	13,y
    806e:	cd a3 12    	cpd	18,y
    8071:	25 cb       	bcs	803e <.L8>

00008073 <.LM17>:
    8073:	8f          	xgdx
    8074:	30          	tsx
    8075:	8f          	xgdx
    8076:	bd 97 de    	jsr	97de <presto_timer_stop>

00008079 <.LM18>:
    8079:	c6 80       	ldab	#128
    807b:	bd 8d a4    	jsr	8da4 <presto_trigger_clear>

0000807e <.LM19>:
    807e:	30          	tsx
    807f:	e6 0c       	ldab	12,x
    8081:	53          	comb
    8082:	f4 c0 00    	andb	c000 <__specvect_end>
    8085:	f7 c0 00    	stab	c000 <__specvect_end>

00008088 <.LM20>:
    8088:	bd 80 00    	jsr	8000 <assert_lights>

0000808b <.LM21>:
    808b:	30          	tsx
    808c:	c6 10       	ldab	#16
    808e:	3a          	abx
    808f:	35          	txs
    8090:	39          	rts

00008091 <use_copier>:
    8091:	34          	des
    8092:	30          	tsx
    8093:	e7 00       	stab	0,x

00008095 <.LM23>:
    8095:	c6 40       	ldab	#64
    8097:	37          	pshb
    8098:	34          	des
    8099:	cc c8 35    	ldd	#c835 <copier>
    809c:	bd 95 99    	jsr	9599 <presto_semaphore_wait>

0000809f <.LM24>:
    809f:	18 30       	tsy
    80a1:	18 ee 05    	ldy	5,y
    80a4:	18 3c       	pshy
    80a6:	30          	tsx
    80a7:	e6 04       	ldab	4,x
    80a9:	bd 80 09    	jsr	8009 <busy_work>

000080ac <.LM25>:
    80ac:	cc c8 35    	ldd	#c835 <copier>
    80af:	bd 95 ae    	jsr	95ae <presto_semaphore_release>
    80b2:	38          	pulx
    80b3:	38          	pulx

000080b4 <.LM26>:
    80b4:	31          	ins
    80b5:	39          	rts

000080b6 <control>:
    80b6:	3c          	pshx

000080b7 <.LM28>:
    80b7:	30          	tsx
    80b8:	6f 01       	clr	1,x
    80ba:	6f 00       	clr	0,x

000080bc <.LM29>:
    80bc:	c6 02       	ldab	#2
    80be:	37          	pshb
    80bf:	34          	des
    80c0:	cc c1 40    	ldd	#c140 <__data_end>
    80c3:	bd 8f 52    	jsr	8f52 <presto_mailbox_init>

000080c6 <.LM30>:
    80c6:	c6 ff       	ldab	#255
    80c8:	37          	pshb
    80c9:	34          	des
    80ca:	f6 c8 82    	ldab	c882 <stud_tid>
    80cd:	bd 8d b4    	jsr	8db4 <presto_trigger_send>

000080d0 <.LM31>:
    80d0:	c6 ff       	ldab	#255
    80d2:	bd 8d 61    	jsr	8d61 <presto_wait>

000080d5 <.LM32>:
    80d5:	c6 ff       	ldab	#255
    80d7:	37          	pshb
    80d8:	34          	des
    80d9:	f6 c8 73    	ldab	c873 <empl_tid>
    80dc:	bd 8d b4    	jsr	8db4 <presto_trigger_send>

000080df <.LM33>:
    80df:	c6 ff       	ldab	#255
    80e1:	bd 8d 61    	jsr	8d61 <presto_wait>

000080e4 <.LM34>:
    80e4:	c6 ff       	ldab	#255
    80e6:	37          	pshb
    80e7:	34          	des
    80e8:	f6 c8 84    	ldab	c884 <mngr_tid>
    80eb:	bd 8d b4    	jsr	8db4 <presto_trigger_send>

000080ee <.LM35>:
    80ee:	c6 ff       	ldab	#255
    80f0:	bd 8d 61    	jsr	8d61 <presto_wait>

000080f3 <.LM36>:
    80f3:	c6 ff       	ldab	#255
    80f5:	37          	pshb
    80f6:	34          	des
    80f7:	f6 c8 81    	ldab	c881 <pres_tid>
    80fa:	bd 8d b4    	jsr	8db4 <presto_trigger_send>

000080fd <.LM37>:
    80fd:	c6 ff       	ldab	#255
    80ff:	bd 8d 61    	jsr	8d61 <presto_wait>

00008102 <.LM38>:
    8102:	30          	tsx
    8103:	8f          	xgdx
    8104:	c3 00 0a    	addd	#a <_.xy+0x6>
    8107:	8f          	xgdx
    8108:	35          	txs

00008109 <.L16>:
    8109:	30          	tsx
    810a:	ee 00       	ldx	0,x
    810c:	3c          	pshx
    810d:	18 ce 00 01 	ldy	#1 <_.tmp+0x1>
    8111:	18 3c       	pshy
    8113:	cc c8 35    	ldd	#c835 <copier>
    8116:	bd 94 2b    	jsr	942b <presto_semaphore_init>

00008119 <.LM40>:
    8119:	cc 00 09    	ldd	#9 <_.xy+0x5>
    811c:	bd 91 48    	jsr	9148 <presto_memory_allocate>
    811f:	8f          	xgdx

00008120 <.LM41>:
    8120:	18 ce 00 00 	ldy	#0 <_.tmp>
    8124:	18 3c       	pshy
    8126:	18 ce 00 01 	ldy	#1 <_.tmp+0x1>
    812a:	18 3c       	pshy
    812c:	3c          	pshx
    812d:	f6 c8 81    	ldab	c881 <pres_tid>
    8130:	bd 8f ae    	jsr	8fae <presto_mail_send_to_task>

00008133 <.LM42>:
    8133:	cc 00 09    	ldd	#9 <_.xy+0x5>
    8136:	bd 91 48    	jsr	9148 <presto_memory_allocate>
    8139:	8f          	xgdx

0000813a <.LM43>:
    813a:	18 ce 00 00 	ldy	#0 <_.tmp>
    813e:	18 3c       	pshy
    8140:	18 ce 00 04 	ldy	#4 <_.xy>
    8144:	18 3c       	pshy
    8146:	3c          	pshx
    8147:	f6 c8 84    	ldab	c884 <mngr_tid>
    814a:	bd 8f ae    	jsr	8fae <presto_mail_send_to_task>

0000814d <.LM44>:
    814d:	cc 00 09    	ldd	#9 <_.xy+0x5>
    8150:	bd 91 48    	jsr	9148 <presto_memory_allocate>
    8153:	8f          	xgdx

00008154 <.LM45>:
    8154:	18 ce 00 00 	ldy	#0 <_.tmp>
    8158:	18 3c       	pshy
    815a:	18 ce 00 07 	ldy	#7 <_.xy+0x3>
    815e:	18 3c       	pshy
    8160:	3c          	pshx
    8161:	f6 c8 73    	ldab	c873 <empl_tid>
    8164:	bd 8f ae    	jsr	8fae <presto_mail_send_to_task>

00008167 <.LM46>:
    8167:	cc 00 09    	ldd	#9 <_.xy+0x5>
    816a:	bd 91 48    	jsr	9148 <presto_memory_allocate>
    816d:	8f          	xgdx

0000816e <.LM47>:
    816e:	18 ce 00 00 	ldy	#0 <_.tmp>
    8172:	18 3c       	pshy
    8174:	18 ce 00 0a 	ldy	#a <_.xy+0x6>
    8178:	18 3c       	pshy
    817a:	3c          	pshx
    817b:	f6 c8 82    	ldab	c882 <stud_tid>
    817e:	bd 8f ae    	jsr	8fae <presto_mail_send_to_task>

00008181 <.LM48>:
    8181:	c6 01       	ldab	#1
    8183:	37          	pshb
    8184:	34          	des
    8185:	cc 3a 98    	ldd	#3a98 <_.frame+0x3a52>
    8188:	bd 97 aa    	jsr	97aa <presto_timer_wait>

0000818b <.LM49>:
    818b:	4f          	clra
    818c:	5f          	clrb
    818d:	30          	tsx
    818e:	8f          	xgdx
    818f:	c3 00 1e    	addd	#1e <_.xy+0x1a>
    8192:	8f          	xgdx
    8193:	35          	txs
    8194:	30          	tsx
    8195:	ee 00       	ldx	0,x
    8197:	26 03       	bne	819c <.L15>
    8199:	cc 00 01    	ldd	#1 <_.tmp+0x1>

0000819c <.L15>:
    819c:	18 30       	tsy
    819e:	18 ed 00    	std	0,y
    81a1:	7e 81 09    	jmp	8109 <.L16>

000081a4 <president>:
    81a4:	3c          	pshx
    81a5:	3c          	pshx
    81a6:	3c          	pshx

000081a7 <.LM52>:
    81a7:	30          	tsx
    81a8:	6f 01       	clr	1,x
    81aa:	6f 00       	clr	0,x

000081ac <.LM53>:
    81ac:	c6 ff       	ldab	#255
    81ae:	bd 8d 61    	jsr	8d61 <presto_wait>

000081b1 <.LM54>:
    81b1:	c6 02       	ldab	#2
    81b3:	37          	pshb
    81b4:	34          	des
    81b5:	cc c1 48    	ldd	#c148 <pres_mbox.1>
    81b8:	bd 8f 52    	jsr	8f52 <presto_mailbox_init>

000081bb <.LM55>:
    81bb:	c6 ff       	ldab	#255
    81bd:	37          	pshb
    81be:	34          	des
    81bf:	f6 c8 74    	ldab	c874 <ctrl_tid>
    81c2:	bd 8d b4    	jsr	8db4 <presto_trigger_send>

000081c5 <.LM56>:
    81c5:	38          	pulx
    81c6:	38          	pulx

000081c7 <.L28>:
    81c7:	c6 03       	ldab	#3
    81c9:	bd 8d 61    	jsr	8d61 <presto_wait>
    81cc:	30          	tsx
    81cd:	e7 03       	stab	3,x

000081cf <.LM58>:
    81cf:	ec 02       	ldd	2,x
    81d1:	c5 02       	bitb	#2
    81d3:	27 53       	beq	8228 <.L21>

000081d5 <.LBB6>:
    81d5:	cc c1 48    	ldd	#c148 <pres_mbox.1>
    81d8:	bd 90 91    	jsr	9091 <presto_mail_get>
    81db:	18 30       	tsy
    81dd:	18 ed 04    	std	4,y

000081e0 <.LM60>:
    81e0:	bd 8f a1    	jsr	8fa1 <presto_envelope_message>
    81e3:	1a 83 00 01 	cpd	#1 <_.tmp+0x1>
    81e7:	27 08       	beq	81f1 <.L23>
    81e9:	1a 83 00 02 	cpd	#2 <_.z>
    81ed:	27 26       	beq	8215 <.L24>
    81ef:	20 2f       	bra	8220 <.L22>

000081f1 <.L23>:
    81f1:	cc 00 0c    	ldd	#c <_.xy+0x8>
    81f4:	bd 91 48    	jsr	9148 <presto_memory_allocate>
    81f7:	30          	tsx
    81f8:	ed 00       	std	0,x

000081fa <.LM62>:
    81fa:	c6 01       	ldab	#1
    81fc:	37          	pshb
    81fd:	34          	des
    81fe:	18 ce 00 00 	ldy	#0 <_.tmp>
    8202:	18 3c       	pshy
    8204:	ce 0b b8    	ldx	#bb8 <_.frame+0xb72>
    8207:	3c          	pshx
    8208:	18 30       	tsy
    820a:	18 ec 06    	ldd	6,y
    820d:	bd 97 2d    	jsr	972d <presto_timer_start>

00008210 <.LM63>:
    8210:	38          	pulx
    8211:	38          	pulx
    8212:	38          	pulx
    8213:	20 0b       	bra	8220 <.L22>

00008215 <.L24>:
    8215:	ce 00 05    	ldx	#5 <_.xy+0x1>
    8218:	3c          	pshx
    8219:	c6 0f       	ldab	#15
    821b:	bd 80 09    	jsr	8009 <busy_work>

0000821e <.LM65>:
    821e:	31          	ins
    821f:	31          	ins

00008220 <.L22>:
    8220:	18 30       	tsy
    8222:	18 ec 04    	ldd	4,y
    8225:	bd 92 1f    	jsr	921f <presto_memory_free>

00008228 <.L21>:
    8228:	18 30       	tsy
    822a:	18 ec 02    	ldd	2,y
    822d:	c5 01       	bitb	#1
    822f:	27 96       	beq	81c7 <.L28>

00008231 <.LM68>:
    8231:	18 ec 00    	ldd	0,y
    8234:	bd 92 1f    	jsr	921f <presto_memory_free>

00008237 <.LM69>:
    8237:	ce 00 0a    	ldx	#a <_.xy+0x6>
    823a:	3c          	pshx
    823b:	c6 01       	ldab	#1
    823d:	bd 80 91    	jsr	8091 <use_copier>
    8240:	31          	ins
    8241:	31          	ins

00008242 <.LBE5>:
    8242:	20 83       	bra	81c7 <.L28>

00008244 <manager>:
    8244:	3c          	pshx

00008245 <.LM72>:
    8245:	c6 ff       	ldab	#255
    8247:	bd 8d 61    	jsr	8d61 <presto_wait>

0000824a <.LM73>:
    824a:	c6 02       	ldab	#2
    824c:	37          	pshb
    824d:	34          	des
    824e:	cc c1 50    	ldd	#c150 <mngr_mbox.2>
    8251:	bd 8f 52    	jsr	8f52 <presto_mailbox_init>

00008254 <.LM74>:
    8254:	c6 ff       	ldab	#255
    8256:	37          	pshb
    8257:	34          	des
    8258:	f6 c8 74    	ldab	c874 <ctrl_tid>
    825b:	bd 8d b4    	jsr	8db4 <presto_trigger_send>

0000825e <.LM75>:
    825e:	38          	pulx
    825f:	38          	pulx

00008260 <.L38>:
    8260:	cc c1 50    	ldd	#c150 <mngr_mbox.2>
    8263:	bd 90 80    	jsr	9080 <presto_mail_wait>
    8266:	30          	tsx
    8267:	ed 00       	std	0,x

00008269 <.LM77>:
    8269:	bd 8f a1    	jsr	8fa1 <presto_envelope_message>
    826c:	1a 83 00 04 	cpd	#4 <_.xy>
    8270:	27 08       	beq	827a <.L34>
    8272:	1a 83 00 05 	cpd	#5 <_.xy+0x1>
    8276:	27 1d       	beq	8295 <.L35>
    8278:	20 38       	bra	82b2 <.L33>

0000827a <.L34>:
    827a:	c6 01       	ldab	#1
    827c:	37          	pshb
    827d:	34          	des
    827e:	cc 0f a0    	ldd	#fa0 <_.frame+0xf5a>
    8281:	bd 97 aa    	jsr	97aa <presto_timer_wait>

00008284 <.LM79>:
    8284:	18 ce 00 32 	ldy	#32 <_.xy+0x2e>
    8288:	18 3c       	pshy
    828a:	c6 02       	ldab	#2
    828c:	bd 80 09    	jsr	8009 <busy_work>

0000828f <.LM80>:
    828f:	18 38       	puly
    8291:	18 38       	puly
    8293:	20 1d       	bra	82b2 <.L33>

00008295 <.L35>:
    8295:	cc 00 09    	ldd	#9 <_.xy+0x5>
    8298:	bd 91 48    	jsr	9148 <presto_memory_allocate>
    829b:	8f          	xgdx

0000829c <.LM82>:
    829c:	18 ce 00 00 	ldy	#0 <_.tmp>
    82a0:	18 3c       	pshy
    82a2:	18 ce 00 02 	ldy	#2 <_.z>
    82a6:	18 3c       	pshy
    82a8:	3c          	pshx
    82a9:	f6 c8 81    	ldab	c881 <pres_tid>
    82ac:	bd 8f ae    	jsr	8fae <presto_mail_send_to_task>

000082af <.LBE9>:
    82af:	38          	pulx
    82b0:	38          	pulx
    82b1:	38          	pulx

000082b2 <.L33>:
    82b2:	30          	tsx
    82b3:	ec 00       	ldd	0,x
    82b5:	bd 92 1f    	jsr	921f <presto_memory_free>

000082b8 <.LBE8>:
    82b8:	20 a6       	bra	8260 <.L38>

000082ba <employee>:
    82ba:	3c          	pshx

000082bb <.LM87>:
    82bb:	c6 ff       	ldab	#255
    82bd:	bd 8d 61    	jsr	8d61 <presto_wait>

000082c0 <.LM88>:
    82c0:	c6 02       	ldab	#2
    82c2:	37          	pshb
    82c3:	34          	des
    82c4:	cc c1 58    	ldd	#c158 <empl_mbox.3>
    82c7:	bd 8f 52    	jsr	8f52 <presto_mailbox_init>

000082ca <.LM89>:
    82ca:	c6 ff       	ldab	#255
    82cc:	37          	pshb
    82cd:	34          	des
    82ce:	f6 c8 74    	ldab	c874 <ctrl_tid>
    82d1:	bd 8d b4    	jsr	8db4 <presto_trigger_send>

000082d4 <.LM90>:
    82d4:	38          	pulx
    82d5:	38          	pulx

000082d6 <.L48>:
    82d6:	cc c1 58    	ldd	#c158 <empl_mbox.3>
    82d9:	bd 90 80    	jsr	9080 <presto_mail_wait>
    82dc:	30          	tsx
    82dd:	ed 00       	std	0,x

000082df <.LM92>:
    82df:	bd 8f a1    	jsr	8fa1 <presto_envelope_message>
    82e2:	1a 83 00 07 	cpd	#7 <_.xy+0x3>
    82e6:	27 08       	beq	82f0 <.L44>
    82e8:	1a 83 00 08 	cpd	#8 <_.xy+0x4>
    82ec:	27 1d       	beq	830b <.L45>
    82ee:	20 38       	bra	8328 <.L43>

000082f0 <.L44>:
    82f0:	c6 01       	ldab	#1
    82f2:	37          	pshb
    82f3:	34          	des
    82f4:	cc 03 e8    	ldd	#3e8 <_.frame+0x3a2>
    82f7:	bd 97 aa    	jsr	97aa <presto_timer_wait>

000082fa <.LM94>:
    82fa:	18 ce 00 32 	ldy	#32 <_.xy+0x2e>
    82fe:	18 3c       	pshy
    8300:	c6 04       	ldab	#4
    8302:	bd 80 91    	jsr	8091 <use_copier>

00008305 <.LM95>:
    8305:	18 38       	puly
    8307:	18 38       	puly
    8309:	20 1d       	bra	8328 <.L43>

0000830b <.L45>:
    830b:	cc 00 09    	ldd	#9 <_.xy+0x5>
    830e:	bd 91 48    	jsr	9148 <presto_memory_allocate>
    8311:	8f          	xgdx

00008312 <.LM97>:
    8312:	18 ce 00 00 	ldy	#0 <_.tmp>
    8316:	18 3c       	pshy
    8318:	18 ce 00 05 	ldy	#5 <_.xy+0x1>
    831c:	18 3c       	pshy
    831e:	3c          	pshx
    831f:	f6 c8 84    	ldab	c884 <mngr_tid>
    8322:	bd 8f ae    	jsr	8fae <presto_mail_send_to_task>

00008325 <.LBE12>:
    8325:	38          	pulx
    8326:	38          	pulx
    8327:	38          	pulx

00008328 <.L43>:
    8328:	30          	tsx
    8329:	ec 00       	ldd	0,x
    832b:	bd 92 1f    	jsr	921f <presto_memory_free>

0000832e <.LBE11>:
    832e:	20 a6       	bra	82d6 <.L48>

00008330 <student>:
    8330:	30          	tsx
    8331:	8f          	xgdx
    8332:	c3 ff f2    	addd	#fff2 <__normvect_start+0x1c>
    8335:	8f          	xgdx
    8336:	35          	txs

00008337 <.LM102>:
    8337:	c6 ff       	ldab	#255
    8339:	bd 8d 61    	jsr	8d61 <presto_wait>

0000833c <.LM103>:
    833c:	c6 02       	ldab	#2
    833e:	37          	pshb
    833f:	34          	des
    8340:	cc c1 60    	ldd	#c160 <stud_mbox.4>
    8343:	bd 8f 52    	jsr	8f52 <presto_mailbox_init>

00008346 <.LM104>:
    8346:	c6 10       	ldab	#16
    8348:	37          	pshb
    8349:	34          	des
    834a:	18 ce 00 7d 	ldy	#7d <_.frame+0x37>
    834e:	18 3c       	pshy
    8350:	ce 00 01    	ldx	#1 <_.tmp+0x1>
    8353:	3c          	pshx
    8354:	18 ce 00 08 	ldy	#8 <_.xy+0x4>
    8358:	18 8f       	xgdy
    835a:	9f 00       	sts	*0 <_.tmp>
    835c:	d3 00       	addd	*0 <_.tmp>
    835e:	c3 00 01    	addd	#1 <_.tmp+0x1>
    8361:	bd 97 2d    	jsr	972d <presto_timer_start>

00008364 <.LM105>:
    8364:	c6 ff       	ldab	#255
    8366:	37          	pshb
    8367:	34          	des
    8368:	f6 c8 74    	ldab	c874 <ctrl_tid>
    836b:	bd 8d b4    	jsr	8db4 <presto_trigger_send>

0000836e <.LM106>:
    836e:	18 30       	tsy
    8370:	18 6f 17    	clr	23,y
    8373:	18 6f 16    	clr	22,y

00008376 <.LM107>:
    8376:	30          	tsx
    8377:	8f          	xgdx
    8378:	c3 00 0a    	addd	#a <_.xy+0x6>
    837b:	8f          	xgdx
    837c:	35          	txs

0000837d <.L58>:
    837d:	c6 10       	ldab	#16
    837f:	bd 8d 61    	jsr	8d61 <presto_wait>

00008382 <.LM109>:
    8382:	20 03       	bra	8387 <.L53>

00008384 <.L56>:
    8384:	bd 92 1f    	jsr	921f <presto_memory_free>

00008387 <.L53>:
    8387:	cc c1 60    	ldd	#c160 <stud_mbox.4>
    838a:	bd 90 91    	jsr	9091 <presto_mail_get>
    838d:	dd 00       	std	*0 <_.tmp>
    838f:	26 f3       	bne	8384 <.L56>

00008391 <.LM111>:
    8391:	f6 c0 00    	ldab	c000 <__specvect_end>
    8394:	c8 08       	eorb	#8
    8396:	f7 c0 00    	stab	c000 <__specvect_end>

00008399 <.LM112>:
    8399:	bd 80 00    	jsr	8000 <assert_lights>

0000839c <.LM113>:
    839c:	ce 10 08    	ldx	#1008 <_.frame+0xfc2>
    839f:	e6 00       	ldab	0,x
    83a1:	c8 3c       	eorb	#60
    83a3:	e7 00       	stab	0,x

000083a5 <.LM114>:
    83a5:	30          	tsx
    83a6:	1a ee 0c    	ldy	12,x
    83a9:	18 08       	iny
    83ab:	1a ef 0c    	sty	12,x
    83ae:	18 8f       	xgdy
    83b0:	8f          	xgdx
    83b1:	8c 00 19    	cpx	#19 <_.xy+0x15>
    83b4:	26 c7       	bne	837d <.L58>

000083b6 <.LBB15>:
    83b6:	18 30       	tsy
    83b8:	18 6f 0d    	clr	13,y
    83bb:	18 6f 0c    	clr	12,y

000083be <.LM116>:
    83be:	cc 00 09    	ldd	#9 <_.xy+0x5>
    83c1:	bd 91 48    	jsr	9148 <presto_memory_allocate>
    83c4:	8f          	xgdx

000083c5 <.LM117>:
    83c5:	18 30       	tsy
    83c7:	18 ee 0c    	ldy	12,y
    83ca:	18 3c       	pshy
    83cc:	18 ce 00 08 	ldy	#8 <_.xy+0x4>
    83d0:	18 3c       	pshy
    83d2:	3c          	pshx
    83d3:	f6 c8 73    	ldab	c873 <empl_tid>
    83d6:	bd 8f ae    	jsr	8fae <presto_mail_send_to_task>

000083d9 <.LBE15>:
    83d9:	38          	pulx
    83da:	38          	pulx
    83db:	38          	pulx

000083dc <.LBE14>:
    83dc:	20 9f       	bra	837d <.L58>

000083de <memdump>:
    83de:	3c          	pshx
    83df:	3c          	pshx
    83e0:	3c          	pshx
    83e1:	30          	tsx
    83e2:	ed 00       	std	0,x

000083e4 <.LBB16>:
    83e4:	6f 05       	clr	5,x
    83e6:	6f 04       	clr	4,x

000083e8 <.LM121>:
    83e8:	4f          	clra
    83e9:	5f          	clrb
    83ea:	ed 02       	std	2,x
    83ec:	1a a3 08    	cpd	8,x
    83ef:	2c 5b       	bge	844c <.L68>

000083f1 <.L66>:
    83f1:	18 30       	tsy
    83f3:	18 ec 00    	ldd	0,y
    83f6:	18 e3 02    	addd	2,y
    83f9:	8f          	xgdx
    83fa:	18 8f       	xgdy
    83fc:	4f          	clra
    83fd:	e6 00       	ldab	0,x
    83ff:	18 8f       	xgdy
    8401:	c6 02       	ldab	#2
    8403:	37          	pshb
    8404:	34          	des
    8405:	ce c8 21    	ldx	#c821 <__bss_end>
    8408:	3c          	pshx
    8409:	18 8f       	xgdy
    840b:	bd 9d dc    	jsr	9ddc <string_IntegerToHex>

0000840e <.LM123>:
    840e:	cc c8 21    	ldd	#c821 <__bss_end>
    8411:	bd 99 b7    	jsr	99b7 <serial_send_string>

00008414 <.LM124>:
    8414:	18 30       	tsy
    8416:	cd ee 08    	ldx	8,y
    8419:	08          	inx
    841a:	cd ef 08    	stx	8,y
    841d:	18 38       	puly
    841f:	18 38       	puly
    8421:	8c 00 0f    	cpx	#f <_.xy+0xb>
    8424:	2e 08       	bgt	842e <.L64>

00008426 <.LM125>:
    8426:	cc c0 01    	ldd	#c001 <.LC0>
    8429:	bd 99 b7    	jsr	99b7 <serial_send_string>
    842c:	20 0e       	bra	843c <.L62>

0000842e <.L64>:
    842e:	cc c0 03    	ldd	#c003 <.LC1>
    8431:	bd 99 b7    	jsr	99b7 <serial_send_string>

00008434 <.LM127>:
    8434:	18 30       	tsy
    8436:	18 6f 05    	clr	5,y
    8439:	18 6f 04    	clr	4,y

0000843c <.L62>:
    843c:	30          	tsx
    843d:	1a ee 02    	ldy	2,x
    8440:	18 08       	iny
    8442:	1a ef 02    	sty	2,x
    8445:	18 8f       	xgdy
    8447:	1a a3 08    	cpd	8,x
    844a:	2d a5       	blt	83f1 <.L66>

0000844c <.L68>:
    844c:	30          	tsx
    844d:	ee 04       	ldx	4,x
    844f:	27 06       	beq	8457 <.L67>
    8451:	cc c0 06    	ldd	#c006 <.LC2>
    8454:	bd 99 b7    	jsr	99b7 <serial_send_string>

00008457 <.L67>:
    8457:	cc c0 09    	ldd	#c009 <.LC3>
    845a:	bd 99 b7    	jsr	99b7 <serial_send_string>

0000845d <.LM131>:
    845d:	38          	pulx
    845e:	38          	pulx
    845f:	38          	pulx
    8460:	39          	rts

00008461 <mempool_info>:
    8461:	3c          	pshx

00008462 <.LM133>:
    8462:	30          	tsx
    8463:	6f 01       	clr	1,x
    8465:	6f 00       	clr	0,x

00008467 <.L74>:
    8467:	18 ce c8 75 	ldy	#c875 <poolstats>
    846b:	18 3c       	pshy
    846d:	30          	tsx
    846e:	ec 02       	ldd	2,x
    8470:	bd 92 9b    	jsr	929b <memory_debug>

00008473 <.LM135>:
    8473:	cc c0 0c    	ldd	#c00c <.LC4>
    8476:	bd 99 b7    	jsr	99b7 <serial_send_string>

00008479 <.LM136>:
    8479:	c6 14       	ldab	#20
    847b:	37          	pshb
    847c:	34          	des
    847d:	18 ce c8 21 	ldy	#c821 <__bss_end>
    8481:	18 3c       	pshy
    8483:	30          	tsx
    8484:	ec 06       	ldd	6,x
    8486:	bd 9d 1b    	jsr	9d1b <string_IntegerToString>

00008489 <.LM137>:
    8489:	cc c8 21    	ldd	#c821 <__bss_end>
    848c:	bd 99 b7    	jsr	99b7 <serial_send_string>

0000848f <.LM138>:
    848f:	cc c0 12    	ldd	#c012 <.LC5>
    8492:	bd 99 b7    	jsr	99b7 <serial_send_string>

00008495 <.LM139>:
    8495:	cc c0 15    	ldd	#c015 <.LC6>
    8498:	bd 99 b7    	jsr	99b7 <serial_send_string>

0000849b <.LM140>:
    849b:	cc c0 1b    	ldd	#c01b <.LC7>
    849e:	bd 99 b7    	jsr	99b7 <serial_send_string>

000084a1 <.LM141>:
    84a1:	cc c0 20    	ldd	#c020 <.LC8>
    84a4:	bd 99 b7    	jsr	99b7 <serial_send_string>

000084a7 <.LM142>:
    84a7:	c6 14       	ldab	#20
    84a9:	37          	pshb
    84aa:	34          	des
    84ab:	18 ce c8 21 	ldy	#c821 <__bss_end>
    84af:	18 3c       	pshy
    84b1:	fc c8 7f    	ldd	c87f <poolstats+0xa>
    84b4:	bd 9d 1b    	jsr	9d1b <string_IntegerToString>

000084b7 <.LM143>:
    84b7:	cc c8 21    	ldd	#c821 <__bss_end>
    84ba:	bd 99 b7    	jsr	99b7 <serial_send_string>

000084bd <.LM144>:
    84bd:	cc c0 27    	ldd	#c027 <.LC9>
    84c0:	bd 99 b7    	jsr	99b7 <serial_send_string>

000084c3 <.LM145>:
    84c3:	c6 14       	ldab	#20
    84c5:	37          	pshb
    84c6:	34          	des
    84c7:	18 ce c8 21 	ldy	#c821 <__bss_end>
    84cb:	18 3c       	pshy
    84cd:	fc c8 77    	ldd	c877 <poolstats+0x2>
    84d0:	bd 9d 1b    	jsr	9d1b <string_IntegerToString>

000084d3 <.LM146>:
    84d3:	cc c8 21    	ldd	#c821 <__bss_end>
    84d6:	bd 99 b7    	jsr	99b7 <serial_send_string>

000084d9 <.LM147>:
    84d9:	cc c0 29    	ldd	#c029 <.LC10>
    84dc:	bd 99 b7    	jsr	99b7 <serial_send_string>

000084df <.LM148>:
    84df:	cc c0 2c    	ldd	#c02c <.LC11>
    84e2:	bd 99 b7    	jsr	99b7 <serial_send_string>

000084e5 <.LM149>:
    84e5:	cc c0 39    	ldd	#c039 <.LC12>
    84e8:	bd 99 b7    	jsr	99b7 <serial_send_string>

000084eb <.LM150>:
    84eb:	cc c0 3e    	ldd	#c03e <.LC13>
    84ee:	bd 99 b7    	jsr	99b7 <serial_send_string>

000084f1 <.LM151>:
    84f1:	c6 14       	ldab	#20
    84f3:	37          	pshb
    84f4:	34          	des
    84f5:	18 ce c8 21 	ldy	#c821 <__bss_end>
    84f9:	18 3c       	pshy
    84fb:	fc c8 79    	ldd	c879 <poolstats+0x4>
    84fe:	bd 9d 1b    	jsr	9d1b <string_IntegerToString>

00008501 <.LM152>:
    8501:	cc c8 21    	ldd	#c821 <__bss_end>
    8504:	bd 99 b7    	jsr	99b7 <serial_send_string>

00008507 <.LM153>:
    8507:	cc c0 45    	ldd	#c045 <.LC14>
    850a:	bd 99 b7    	jsr	99b7 <serial_send_string>

0000850d <.LM154>:
    850d:	c6 14       	ldab	#20
    850f:	37          	pshb
    8510:	34          	des
    8511:	18 ce c8 21 	ldy	#c821 <__bss_end>
    8515:	18 3c       	pshy
    8517:	fc c8 7d    	ldd	c87d <poolstats+0x8>
    851a:	bd 9d 1b    	jsr	9d1b <string_IntegerToString>

0000851d <.LM155>:
    851d:	cc c8 21    	ldd	#c821 <__bss_end>
    8520:	bd 99 b7    	jsr	99b7 <serial_send_string>

00008523 <.LM156>:
    8523:	cc c0 47    	ldd	#c047 <.LC15>
    8526:	bd 99 b7    	jsr	99b7 <serial_send_string>

00008529 <.LM157>:
    8529:	c6 14       	ldab	#20
    852b:	37          	pshb
    852c:	34          	des
    852d:	18 ce c8 21 	ldy	#c821 <__bss_end>
    8531:	18 3c       	pshy
    8533:	fc c8 75    	ldd	c875 <poolstats>
    8536:	bd 9d 1b    	jsr	9d1b <string_IntegerToString>

00008539 <.LM158>:
    8539:	cc c8 21    	ldd	#c821 <__bss_end>
    853c:	bd 99 b7    	jsr	99b7 <serial_send_string>

0000853f <.LM159>:
    853f:	cc c0 49    	ldd	#c049 <.LC16>
    8542:	bd 99 b7    	jsr	99b7 <serial_send_string>

00008545 <.LM160>:
    8545:	cc c0 4c    	ldd	#c04c <.LC17>
    8548:	bd 99 b7    	jsr	99b7 <serial_send_string>

0000854b <.LM161>:
    854b:	c6 14       	ldab	#20
    854d:	37          	pshb
    854e:	34          	des
    854f:	18 ce c8 21 	ldy	#c821 <__bss_end>
    8553:	18 3c       	pshy
    8555:	fc c8 7b    	ldd	c87b <poolstats+0x6>
    8558:	bd 9d 1b    	jsr	9d1b <string_IntegerToString>

0000855b <.LM162>:
    855b:	cc c8 21    	ldd	#c821 <__bss_end>
    855e:	bd 99 b7    	jsr	99b7 <serial_send_string>

00008561 <.LM163>:
    8561:	cc c0 61    	ldd	#c061 <.LC18>
    8564:	bd 99 b7    	jsr	99b7 <serial_send_string>

00008567 <.LM164>:
    8567:	cc c0 64    	ldd	#c064 <.LC19>
    856a:	bd 99 b7    	jsr	99b7 <serial_send_string>

0000856d <.LM165>:
    856d:	30          	tsx
    856e:	8f          	xgdx
    856f:	c3 00 1e    	addd	#1e <_.xy+0x1a>
    8572:	8f          	xgdx
    8573:	35          	txs
    8574:	30          	tsx
    8575:	1a ee 00    	ldy	0,x
    8578:	18 08       	iny
    857a:	1a ef 00    	sty	0,x
    857d:	18 df 00    	sty	*0 <_.tmp>
    8580:	de 00       	ldx	*0 <_.tmp>
    8582:	8c 00 01    	cpx	#1 <_.tmp+0x1>
    8585:	2e 03       	bgt	858a <.LM166>
    8587:	7e 84 67    	jmp	8467 <.L74>

0000858a <.LM166>:
    858a:	cc c0 67    	ldd	#c067 <.LC20>
    858d:	bd 99 b7    	jsr	99b7 <serial_send_string>

00008590 <.LM167>:
    8590:	38          	pulx
    8591:	39          	rts

00008592 <debugger>:
    8592:	3c          	pshx

00008593 <.LM169>:
    8593:	c6 01       	ldab	#1
    8595:	37          	pshb
    8596:	34          	des
    8597:	c6 02       	ldab	#2
    8599:	37          	pshb
    859a:	34          	des
    859b:	f6 c8 83    	ldab	c883 <dbug_tid>
    859e:	bd 99 27    	jsr	9927 <serial_init>

000085a1 <.LM170>:
    85a1:	cc c0 6a    	ldd	#c06a <.LC21>
    85a4:	bd 99 b7    	jsr	99b7 <serial_send_string>

000085a7 <.LM171>:
    85a7:	cc c0 78    	ldd	#c078 <.LC22>
    85aa:	bd 99 b7    	jsr	99b7 <serial_send_string>

000085ad <.LM172>:
    85ad:	18 8f       	xgdy
    85af:	4f          	clra
    85b0:	f6 c8 74    	ldab	c874 <ctrl_tid>
    85b3:	18 8f       	xgdy
    85b5:	c6 14       	ldab	#20
    85b7:	37          	pshb
    85b8:	34          	des
    85b9:	ce c8 21    	ldx	#c821 <__bss_end>
    85bc:	3c          	pshx
    85bd:	18 8f       	xgdy
    85bf:	bd 9d 1b    	jsr	9d1b <string_IntegerToString>

000085c2 <.LM173>:
    85c2:	cc c8 21    	ldd	#c821 <__bss_end>
    85c5:	bd 99 b7    	jsr	99b7 <serial_send_string>

000085c8 <.LM174>:
    85c8:	cc c0 82    	ldd	#c082 <.LC23>
    85cb:	bd 99 b7    	jsr	99b7 <serial_send_string>

000085ce <.LM175>:
    85ce:	cc c0 85    	ldd	#c085 <.LC24>
    85d1:	bd 99 b7    	jsr	99b7 <serial_send_string>

000085d4 <.LM176>:
    85d4:	18 8f       	xgdy
    85d6:	4f          	clra
    85d7:	f6 c8 81    	ldab	c881 <pres_tid>
    85da:	18 8f       	xgdy
    85dc:	c6 14       	ldab	#20
    85de:	37          	pshb
    85df:	34          	des
    85e0:	ce c8 21    	ldx	#c821 <__bss_end>
    85e3:	3c          	pshx
    85e4:	18 8f       	xgdy
    85e6:	bd 9d 1b    	jsr	9d1b <string_IntegerToString>

000085e9 <.LM177>:
    85e9:	cc c8 21    	ldd	#c821 <__bss_end>
    85ec:	bd 99 b7    	jsr	99b7 <serial_send_string>

000085ef <.LM178>:
    85ef:	cc c0 8f    	ldd	#c08f <.LC25>
    85f2:	bd 99 b7    	jsr	99b7 <serial_send_string>

000085f5 <.LM179>:
    85f5:	cc c0 92    	ldd	#c092 <.LC26>
    85f8:	bd 99 b7    	jsr	99b7 <serial_send_string>

000085fb <.LM180>:
    85fb:	18 8f       	xgdy
    85fd:	4f          	clra
    85fe:	f6 c8 84    	ldab	c884 <mngr_tid>
    8601:	18 8f       	xgdy
    8603:	c6 14       	ldab	#20
    8605:	37          	pshb
    8606:	34          	des
    8607:	ce c8 21    	ldx	#c821 <__bss_end>
    860a:	3c          	pshx
    860b:	18 8f       	xgdy
    860d:	bd 9d 1b    	jsr	9d1b <string_IntegerToString>

00008610 <.LM181>:
    8610:	cc c8 21    	ldd	#c821 <__bss_end>
    8613:	bd 99 b7    	jsr	99b7 <serial_send_string>

00008616 <.LM182>:
    8616:	cc c0 9c    	ldd	#c09c <.LC27>
    8619:	bd 99 b7    	jsr	99b7 <serial_send_string>

0000861c <.LM183>:
    861c:	cc c0 9f    	ldd	#c09f <.LC28>
    861f:	bd 99 b7    	jsr	99b7 <serial_send_string>

00008622 <.LM184>:
    8622:	18 8f       	xgdy
    8624:	4f          	clra
    8625:	f6 c8 73    	ldab	c873 <empl_tid>
    8628:	18 8f       	xgdy
    862a:	c6 14       	ldab	#20
    862c:	37          	pshb
    862d:	34          	des
    862e:	ce c8 21    	ldx	#c821 <__bss_end>
    8631:	3c          	pshx
    8632:	18 8f       	xgdy
    8634:	bd 9d 1b    	jsr	9d1b <string_IntegerToString>

00008637 <.LM185>:
    8637:	cc c8 21    	ldd	#c821 <__bss_end>
    863a:	bd 99 b7    	jsr	99b7 <serial_send_string>

0000863d <.LM186>:
    863d:	cc c0 a9    	ldd	#c0a9 <.LC29>
    8640:	bd 99 b7    	jsr	99b7 <serial_send_string>

00008643 <.LM187>:
    8643:	cc c0 ac    	ldd	#c0ac <.LC30>
    8646:	bd 99 b7    	jsr	99b7 <serial_send_string>

00008649 <.LM188>:
    8649:	18 8f       	xgdy
    864b:	4f          	clra
    864c:	f6 c8 82    	ldab	c882 <stud_tid>
    864f:	18 8f       	xgdy
    8651:	c6 14       	ldab	#20
    8653:	37          	pshb
    8654:	34          	des
    8655:	ce c8 21    	ldx	#c821 <__bss_end>
    8658:	3c          	pshx
    8659:	18 8f       	xgdy
    865b:	bd 9d 1b    	jsr	9d1b <string_IntegerToString>

0000865e <.LM189>:
    865e:	cc c8 21    	ldd	#c821 <__bss_end>
    8661:	bd 99 b7    	jsr	99b7 <serial_send_string>

00008664 <.LM190>:
    8664:	cc c0 b6    	ldd	#c0b6 <.LC31>
    8667:	bd 99 b7    	jsr	99b7 <serial_send_string>

0000866a <.LM191>:
    866a:	cc c0 b9    	ldd	#c0b9 <.LC32>
    866d:	bd 99 b7    	jsr	99b7 <serial_send_string>

00008670 <.LM192>:
    8670:	18 8f       	xgdy
    8672:	4f          	clra
    8673:	f6 c8 83    	ldab	c883 <dbug_tid>
    8676:	18 8f       	xgdy
    8678:	c6 14       	ldab	#20
    867a:	37          	pshb
    867b:	34          	des
    867c:	ce c8 21    	ldx	#c821 <__bss_end>
    867f:	3c          	pshx
    8680:	18 8f       	xgdy
    8682:	bd 9d 1b    	jsr	9d1b <string_IntegerToString>

00008685 <.LM193>:
    8685:	cc c8 21    	ldd	#c821 <__bss_end>
    8688:	bd 99 b7    	jsr	99b7 <serial_send_string>

0000868b <.LM194>:
    868b:	cc c0 c3    	ldd	#c0c3 <.LC33>
    868e:	bd 99 b7    	jsr	99b7 <serial_send_string>

00008691 <.LM195>:
    8691:	c6 04       	ldab	#4
    8693:	37          	pshb
    8694:	34          	des
    8695:	cc 01 f4    	ldd	#1f4 <_.frame+0x1ae>
    8698:	bd 97 aa    	jsr	97aa <presto_timer_wait>

0000869b <.LM196>:
    869b:	cc c0 c6    	ldd	#c0c6 <.LC34>
    869e:	bd 99 b7    	jsr	99b7 <serial_send_string>

000086a1 <.LM197>:
    86a1:	18 ce 00 50 	ldy	#50 <_.frame+0xa>
    86a5:	18 3c       	pshy
    86a7:	cc c8 85    	ldd	#c885 <__common_end>
    86aa:	bd 83 de    	jsr	83de <memdump>

000086ad <.LM198>:
    86ad:	30          	tsx
    86ae:	6f 21       	clr	33,x
    86b0:	6f 20       	clr	32,x

000086b2 <.LM199>:
    86b2:	30          	tsx
    86b3:	8f          	xgdx
    86b4:	c3 00 20    	addd	#20 <_.xy+0x1c>
    86b7:	8f          	xgdx
    86b8:	35          	txs

000086b9 <.L89>:
    86b9:	bd 84 61    	jsr	8461 <mempool_info>

000086bc <.LM201>:
    86bc:	c6 04       	ldab	#4
    86be:	37          	pshb
    86bf:	34          	des
    86c0:	cc 01 f4    	ldd	#1f4 <_.frame+0x1ae>
    86c3:	bd 97 aa    	jsr	97aa <presto_timer_wait>

000086c6 <.LM202>:
    86c6:	31          	ins
    86c7:	31          	ins
    86c8:	18 30       	tsy
    86ca:	18 ec 00    	ldd	0,y
    86cd:	37          	pshb
    86ce:	36          	psha
    86cf:	38          	pulx
    86d0:	08          	inx
    86d1:	cd ef 00    	stx	0,y
    86d4:	1a 83 00 05 	cpd	#5 <_.xy+0x1>
    86d8:	22 70       	bhi	874a <.L87>
    86da:	05          	asld
    86db:	c3 9f e5    	addd	#9fe5 <__text_end>
    86de:	18 8f       	xgdy
    86e0:	cd ee 00    	ldx	0,y
    86e3:	6e 00       	jmp	0,x

000086e5 <.L81>:
    86e5:	cc c0 d7    	ldd	#c0d7 <.LC35>
    86e8:	bd 99 b7    	jsr	99b7 <serial_send_string>

000086eb <.LM204>:
    86eb:	ce 00 a0    	ldx	#a0 <_.frame+0x5a>
    86ee:	3c          	pshx
    86ef:	cc c3 48    	ldd	#c348 <pres_stack>

000086f2 <.LM205>:
    86f2:	20 4f       	bra	8743 <.L90>

000086f4 <.L82>:
    86f4:	cc c0 e5    	ldd	#c0e5 <.LC36>
    86f7:	bd 99 b7    	jsr	99b7 <serial_send_string>

000086fa <.LM207>:
    86fa:	18 ce 00 a0 	ldy	#a0 <_.frame+0x5a>
    86fe:	18 3c       	pshy
    8700:	cc c2 a8    	ldd	#c2a8 <mngr_stack>

00008703 <.LM208>:
    8703:	20 3e       	bra	8743 <.L90>

00008705 <.L83>:
    8705:	cc c0 f3    	ldd	#c0f3 <.LC37>
    8708:	bd 99 b7    	jsr	99b7 <serial_send_string>

0000870b <.LM210>:
    870b:	ce 00 a0    	ldx	#a0 <_.frame+0x5a>
    870e:	3c          	pshx
    870f:	cc c2 08    	ldd	#c208 <empl_stack>

00008712 <.LM211>:
    8712:	20 2f       	bra	8743 <.L90>

00008714 <.L84>:
    8714:	cc c1 01    	ldd	#c101 <.LC38>
    8717:	bd 99 b7    	jsr	99b7 <serial_send_string>

0000871a <.LM213>:
    871a:	18 ce 00 a0 	ldy	#a0 <_.frame+0x5a>
    871e:	18 3c       	pshy
    8720:	cc c1 68    	ldd	#c168 <stud_stack>

00008723 <.LM214>:
    8723:	20 1e       	bra	8743 <.L90>

00008725 <.L85>:
    8725:	cc c1 0f    	ldd	#c10f <.LC39>
    8728:	bd 99 b7    	jsr	99b7 <serial_send_string>

0000872b <.LM216>:
    872b:	ce 00 a0    	ldx	#a0 <_.frame+0x5a>
    872e:	3c          	pshx
    872f:	cc c3 e8    	ldd	#c3e8 <ctrl_stack>

00008732 <.LM217>:
    8732:	20 0f       	bra	8743 <.L90>

00008734 <.L86>:
    8734:	cc c1 1d    	ldd	#c11d <.LC40>
    8737:	bd 99 b7    	jsr	99b7 <serial_send_string>

0000873a <.LM219>:
    873a:	18 ce 00 a0 	ldy	#a0 <_.frame+0x5a>
    873e:	18 3c       	pshy
    8740:	cc c4 88    	ldd	#c488 <dbug_stack>

00008743 <.L90>:
    8743:	bd 83 de    	jsr	83de <memdump>

00008746 <.LM220>:
    8746:	31          	ins
    8747:	31          	ins
    8748:	20 0b       	bra	8755 <.L80>

0000874a <.L87>:
    874a:	cc c1 2b    	ldd	#c12b <.LC41>
    874d:	bd 99 b7    	jsr	99b7 <serial_send_string>

00008750 <.LM222>:
    8750:	30          	tsx
    8751:	6f 01       	clr	1,x
    8753:	6f 00       	clr	0,x

00008755 <.L80>:
    8755:	c6 04       	ldab	#4
    8757:	37          	pshb
    8758:	34          	des
    8759:	cc 01 f4    	ldd	#1f4 <_.frame+0x1ae>
    875c:	bd 97 aa    	jsr	97aa <presto_timer_wait>
    875f:	31          	ins
    8760:	31          	ins
    8761:	7e 86 b9    	jmp	86b9 <.L89>

00008764 <main>:
    8764:	ce 10 09    	ldx	#1009 <_.frame+0xfc3>
    8767:	c6 3f       	ldab	#63
    8769:	e7 00       	stab	0,x

0000876b <.LM227>:
    876b:	bd 80 00    	jsr	8000 <assert_lights>

0000876e <.LM228>:
    876e:	bd 8b 35    	jsr	8b35 <presto_init>

00008771 <.LM229>:
    8771:	c6 0e       	ldab	#14
    8773:	37          	pshb
    8774:	34          	des
    8775:	18 ce 00 a0 	ldy	#a0 <_.frame+0x5a>
    8779:	18 3c       	pshy
    877b:	ce c3 48    	ldx	#c348 <pres_stack>
    877e:	3c          	pshx
    877f:	cc 81 a4    	ldd	#81a4 <president>
    8782:	bd 8b b7    	jsr	8bb7 <presto_task_create>
    8785:	f7 c8 81    	stab	c881 <pres_tid>

00008788 <.LM230>:
    8788:	c6 0d       	ldab	#13
    878a:	37          	pshb
    878b:	34          	des
    878c:	18 ce 00 a0 	ldy	#a0 <_.frame+0x5a>
    8790:	18 3c       	pshy
    8792:	ce c2 a8    	ldx	#c2a8 <mngr_stack>
    8795:	3c          	pshx
    8796:	cc 82 44    	ldd	#8244 <manager>
    8799:	bd 8b b7    	jsr	8bb7 <presto_task_create>
    879c:	f7 c8 84    	stab	c884 <mngr_tid>

0000879f <.LM231>:
    879f:	c6 0c       	ldab	#12
    87a1:	37          	pshb
    87a2:	34          	des
    87a3:	18 ce 00 a0 	ldy	#a0 <_.frame+0x5a>
    87a7:	18 3c       	pshy
    87a9:	ce c2 08    	ldx	#c208 <empl_stack>
    87ac:	3c          	pshx
    87ad:	cc 82 ba    	ldd	#82ba <employee>
    87b0:	bd 8b b7    	jsr	8bb7 <presto_task_create>
    87b3:	f7 c8 73    	stab	c873 <empl_tid>

000087b6 <.LM232>:
    87b6:	c6 0b       	ldab	#11
    87b8:	37          	pshb
    87b9:	34          	des
    87ba:	18 ce 00 a0 	ldy	#a0 <_.frame+0x5a>
    87be:	18 3c       	pshy
    87c0:	ce c1 68    	ldx	#c168 <stud_stack>
    87c3:	3c          	pshx
    87c4:	cc 83 30    	ldd	#8330 <student>
    87c7:	bd 8b b7    	jsr	8bb7 <presto_task_create>
    87ca:	f7 c8 82    	stab	c882 <stud_tid>

000087cd <.LM233>:
    87cd:	c6 63       	ldab	#99
    87cf:	37          	pshb
    87d0:	34          	des
    87d1:	18 ce 00 a0 	ldy	#a0 <_.frame+0x5a>
    87d5:	18 3c       	pshy
    87d7:	ce c3 e8    	ldx	#c3e8 <ctrl_stack>
    87da:	3c          	pshx
    87db:	cc 80 b6    	ldd	#80b6 <control>
    87de:	bd 8b b7    	jsr	8bb7 <presto_task_create>
    87e1:	f7 c8 74    	stab	c874 <ctrl_tid>

000087e4 <.LM234>:
    87e4:	c6 32       	ldab	#50
    87e6:	37          	pshb
    87e7:	34          	des
    87e8:	18 ce 00 a0 	ldy	#a0 <_.frame+0x5a>
    87ec:	18 3c       	pshy
    87ee:	ce c4 88    	ldx	#c488 <dbug_stack>
    87f1:	3c          	pshx
    87f2:	cc 85 92    	ldd	#8592 <debugger>
    87f5:	bd 8b b7    	jsr	8bb7 <presto_task_create>
    87f8:	f7 c8 83    	stab	c883 <dbug_tid>

000087fb <.LM235>:
    87fb:	30          	tsx
    87fc:	c6 24       	ldab	#36
    87fe:	3a          	abx
    87ff:	35          	txs
    8800:	bd 8c 9f    	jsr	8c9f <presto_scheduler_start>

00008803 <.LM236>:
    8803:	cc 00 21    	ldd	#21 <_.xy+0x1d>
    8806:	bd 88 bb    	jsr	88bb <error_fatal>

00008809 <.LM237>:
    8809:	4f          	clra
    880a:	5f          	clrb

0000880b <.LM238>:
    880b:	39          	rts

0000880c <premain>:
    880c:	0f          	sei

0000880d <.LM3>:
    880d:	ce 10 3d    	ldx	#103d <_.frame+0xff7>
    8810:	c6 01       	ldab	#1
    8812:	e7 00       	stab	0,x

00008814 <.LM4>:
    8814:	ce 10 24    	ldx	#1024 <_.frame+0xfde>
    8817:	c6 03       	ldab	#3
    8819:	e7 00       	stab	0,x

0000881b <.LM5>:
    881b:	ce 10 39    	ldx	#1039 <_.frame+0xff3>
    881e:	c6 a3       	ldab	#163
    8820:	e7 00       	stab	0,x

00008822 <.LM6>:
    8822:	ce 10 02    	ldx	#1002 <_.frame+0xfbc>
    8825:	c6 03       	ldab	#3
    8827:	e7 00       	stab	0,x

00008829 <.LM7>:
    8829:	ce 10 2d    	ldx	#102d <_.frame+0xfe7>
    882c:	5f          	clrb
    882d:	e7 00       	stab	0,x

0000882f <.LM8>:
    882f:	ce 10 28    	ldx	#1028 <_.frame+0xfe2>
    8832:	c6 04       	ldab	#4
    8834:	e7 00       	stab	0,x

00008836 <.LM9>:
    8836:	ce 10 20    	ldx	#1020 <_.frame+0xfda>
    8839:	5f          	clrb
    883a:	e7 00       	stab	0,x

0000883c <.LM10>:
    883c:	ce 10 21    	ldx	#1021 <_.frame+0xfdb>
    883f:	e7 00       	stab	0,x

00008841 <.LM11>:
    8841:	ce 10 22    	ldx	#1022 <_.frame+0xfdc>
    8844:	e7 00       	stab	0,x

00008846 <.LM12>:
    8846:	bd 8a 37    	jsr	8a37 <init_interrupts>

00008849 <.LM13>:
    8849:	ce 10 3c    	ldx	#103c <_.frame+0xff6>
    884c:	c6 2c       	ldab	#44
    884e:	e7 00       	stab	0,x

00008850 <.LM14>:
    8850:	39          	rts

00008851 <exit>:
    8851:	20 fe       	bra	8851 <exit>

00008853 <_start>:
    8853:	8e c8 d4    	lds	#c8d4 <__common_end+0x4f>
    8856:	bd 88 0c    	jsr	880c <premain>
    8859:	4f          	clra
    885a:	ce c1 40    	ldx	#c140 <__data_end>

0000885d <bss_loop>:
    885d:	8c c8 21    	cpx	#c821 <__bss_end>
    8860:	27 05       	beq	8867 <bss_done>
    8862:	a7 00       	staa	0,x
    8864:	08          	inx
    8865:	20 f6       	bra	885d <bss_loop>

00008867 <bss_done>:
    8867:	ce 9f f1    	ldx	#9ff1 <__rodata_end>
    886a:	18 ce c0 00 	ldy	#c000 <__specvect_end>

0000886e <idata_loop>:
    886e:	8c a1 31    	cpx	#a131 <__idata_end>
    8871:	27 0a       	beq	887d <idata_done>
    8873:	e6 00       	ldab	0,x
    8875:	18 e7 00    	stab	0,y
    8878:	08          	inx
    8879:	18 08       	iny
    887b:	20 f1       	bra	886e <idata_loop>

0000887d <idata_done>:
    887d:	bd 87 64    	jsr	8764 <main>

00008880 <_postmain>:
    8880:	20 fe       	bra	8880 <_postmain>

00008882 <show_one_byte>:
    8882:	3c          	pshx
    8883:	3c          	pshx
    8884:	30          	tsx
    8885:	e7 00       	stab	0,x

00008887 <.LBB2>:
    8887:	c6 ff       	ldab	#255
    8889:	e7 03       	stab	3,x
    888b:	ce 7f ff    	ldx	#7fff <_.frame+0x7fb9>
    888e:	18 30       	tsy
    8890:	18 e6 00    	ldab	0,y
    8893:	58          	aslb
    8894:	58          	aslb
    8895:	58          	aslb
    8896:	58          	aslb
    8897:	18 e7 01    	stab	1,y

0000889a <.L7>:
    889a:	18 30       	tsy
    889c:	18 ec 02    	ldd	2,y
    889f:	c5 01       	bitb	#1
    88a1:	27 05       	beq	88a8 <.L5>
    88a3:	18 e6 01    	ldab	1,y
    88a6:	20 07       	bra	88af <.L9>

000088a8 <.L5>:
    88a8:	18 30       	tsy
    88aa:	18 e6 00    	ldab	0,y
    88ad:	ca 0f       	orab	#15

000088af <.L9>:
    88af:	e7 00       	stab	0,x
    88b1:	18 30       	tsy
    88b3:	18 6a 03    	dec	3,y
    88b6:	26 e2       	bne	889a <.L7>

000088b8 <.LBE2>:
    88b8:	38          	pulx
    88b9:	38          	pulx
    88ba:	39          	rts

000088bb <error_fatal>:
    88bb:	3c          	pshx
    88bc:	30          	tsx
    88bd:	ed 00       	std	0,x

000088bf <.LM7>:
    88bf:	0f          	sei

000088c0 <.L14>:
    88c0:	ce 10 00    	ldx	#1000 <_.frame+0xfba>
    88c3:	e6 00       	ldab	0,x
    88c5:	c8 08       	eorb	#8
    88c7:	e7 00       	stab	0,x

000088c9 <.LM9>:
    88c9:	30          	tsx
    88ca:	e6 01       	ldab	1,x
    88cc:	8d b4       	bsr	8882 <show_one_byte>
    88ce:	20 f0       	bra	88c0 <.L14>

000088d0 <error_crash>:
	...

000088d1 <.LM13>:
    88d1:	39          	rts

000088d2 <error_address>:
    88d2:	3c          	pshx
    88d3:	34          	des
    88d4:	30          	tsx
    88d5:	ed 00       	std	0,x

000088d7 <.LBB3>:
    88d7:	0f          	sei

000088d8 <.L40>:
    88d8:	30          	tsx
    88d9:	6f 02       	clr	2,x

000088db <.L24>:
    88db:	5f          	clrb
    88dc:	8d a4       	bsr	8882 <show_one_byte>

000088de <.LM18>:
    88de:	30          	tsx
    88df:	6c 02       	inc	2,x
    88e1:	e6 02       	ldab	2,x
    88e3:	c1 95       	cmpb	#149
    88e5:	23 f4       	bls	88db <.L24>

000088e7 <.LM19>:
    88e7:	6f 02       	clr	2,x

000088e9 <.L29>:
    88e9:	ce 10 00    	ldx	#1000 <_.frame+0xfba>
    88ec:	e6 00       	ldab	0,x
    88ee:	c8 08       	eorb	#8
    88f0:	e7 00       	stab	0,x

000088f2 <.LM21>:
    88f2:	30          	tsx
    88f3:	4f          	clra
    88f4:	e6 00       	ldab	0,x
    88f6:	8d 8a       	bsr	8882 <show_one_byte>

000088f8 <.LM22>:
    88f8:	30          	tsx
    88f9:	6c 02       	inc	2,x
    88fb:	e6 02       	ldab	2,x
    88fd:	c1 63       	cmpb	#99
    88ff:	23 e8       	bls	88e9 <.L29>

00008901 <.LM23>:
    8901:	6f 02       	clr	2,x

00008903 <.L34>:
    8903:	5f          	clrb
    8904:	bd 88 82    	jsr	8882 <show_one_byte>

00008907 <.LM25>:
    8907:	30          	tsx
    8908:	6c 02       	inc	2,x
    890a:	e6 02       	ldab	2,x
    890c:	c1 18       	cmpb	#24
    890e:	23 f3       	bls	8903 <.L34>

00008910 <.LM26>:
    8910:	6f 02       	clr	2,x

00008912 <.L39>:
    8912:	ce 10 00    	ldx	#1000 <_.frame+0xfba>
    8915:	e6 00       	ldab	0,x
    8917:	c8 08       	eorb	#8
    8919:	e7 00       	stab	0,x

0000891b <.LM28>:
    891b:	30          	tsx
    891c:	e6 01       	ldab	1,x
    891e:	bd 88 82    	jsr	8882 <show_one_byte>

00008921 <.LM29>:
    8921:	30          	tsx
    8922:	6c 02       	inc	2,x
    8924:	e6 02       	ldab	2,x
    8926:	c1 63       	cmpb	#99
    8928:	23 e8       	bls	8912 <.L39>
    892a:	20 ac       	bra	88d8 <.L40>

0000892c <hwtimer_start>:
    892c:	3c          	pshx
    892d:	3c          	pshx
    892e:	30          	tsx
    892f:	ed 02       	std	2,x

00008931 <.LM2>:
    8931:	05          	asld
    8932:	05          	asld
    8933:	05          	asld
    8934:	05          	asld
    8935:	05          	asld
    8936:	a3 02       	subd	2,x
    8938:	05          	asld
    8939:	05          	asld
    893a:	8f          	xgdx
    893b:	18 30       	tsy
    893d:	8f          	xgdx
    893e:	18 e3 02    	addd	2,y
    8941:	8f          	xgdx
    8942:	ff c5 28    	stx	c528 <eclocks_per_tick>

00008945 <.LM3>:
    8945:	ce 10 20    	ldx	#1020 <_.frame+0xfda>
    8948:	1d 00 c0    	bclr	0,x #$c0

0000894b <.LM4>:
    894b:	ce 10 0e    	ldx	#100e <_.frame+0xfc8>
    894e:	ec 00       	ldd	0,x
    8950:	f3 c5 28    	addd	c528 <eclocks_per_tick>
    8953:	ce 10 18    	ldx	#1018 <_.frame+0xfd2>
    8956:	ed 00       	std	0,x

00008958 <.LM5>:
    8958:	ce 10 23    	ldx	#1023 <_.frame+0xfdd>
    895b:	c6 40       	ldab	#64
    895d:	e7 00       	stab	0,x

0000895f <.LM6>:
    895f:	ce 10 22    	ldx	#1022 <_.frame+0xfdc>
    8962:	1c 00 40    	bset	0,x #$40

00008965 <.LM7>:
    8965:	38          	pulx
    8966:	38          	pulx
    8967:	39          	rts

00008968 <hwtimer_restart>:
    8968:	ce 10 23    	ldx	#1023 <_.frame+0xfdd>
    896b:	c6 40       	ldab	#64
    896d:	e7 00       	stab	0,x

0000896f <.LM10>:
    896f:	ce 10 18    	ldx	#1018 <_.frame+0xfd2>
    8972:	ec 00       	ldd	0,x
    8974:	f3 c5 28    	addd	c528 <eclocks_per_tick>
    8977:	ed 00       	std	0,x

00008979 <.LM11>:
    8979:	39          	rts

0000897a <inert_isr>:
    897a:	3b          	rti
    897b:	39          	rts

0000897c <error_isr>:
    897c:	cc 00 20    	ldd	#20 <_.xy+0x1c>
    897f:	bd 88 bb    	jsr	88bb <error_fatal>
    8982:	39          	rts

00008983 <error_SCI_isr>:
    8983:	cc 00 0b    	ldd	#b <_.xy+0x7>
    8986:	bd 88 bb    	jsr	88bb <error_fatal>
    8989:	39          	rts

0000898a <error_SPI_isr>:
    898a:	cc 00 0c    	ldd	#c <_.xy+0x8>
    898d:	bd 88 bb    	jsr	88bb <error_fatal>
    8990:	39          	rts

00008991 <error_PAIE_isr>:
    8991:	cc 00 0d    	ldd	#d <_.xy+0x9>
    8994:	bd 88 bb    	jsr	88bb <error_fatal>
    8997:	39          	rts

00008998 <error_PAO_isr>:
    8998:	cc 00 0e    	ldd	#e <_.xy+0xa>
    899b:	bd 88 bb    	jsr	88bb <error_fatal>
    899e:	39          	rts

0000899f <error_TOF_isr>:
    899f:	cc 00 0f    	ldd	#f <_.xy+0xb>
    89a2:	bd 88 bb    	jsr	88bb <error_fatal>
    89a5:	39          	rts

000089a6 <error_TOC5_isr>:
    89a6:	cc 00 10    	ldd	#10 <_.xy+0xc>
    89a9:	bd 88 bb    	jsr	88bb <error_fatal>
    89ac:	39          	rts

000089ad <error_TOC4_isr>:
    89ad:	cc 00 11    	ldd	#11 <_.xy+0xd>
    89b0:	bd 88 bb    	jsr	88bb <error_fatal>
    89b3:	39          	rts

000089b4 <error_TOC3_isr>:
    89b4:	cc 00 12    	ldd	#12 <_.xy+0xe>
    89b7:	bd 88 bb    	jsr	88bb <error_fatal>
    89ba:	39          	rts

000089bb <error_TOC2_isr>:
    89bb:	cc 00 13    	ldd	#13 <_.xy+0xf>
    89be:	bd 88 bb    	jsr	88bb <error_fatal>
    89c1:	39          	rts

000089c2 <error_TOC1_isr>:
    89c2:	cc 00 14    	ldd	#14 <_.xy+0x10>
    89c5:	bd 88 bb    	jsr	88bb <error_fatal>
    89c8:	39          	rts

000089c9 <error_TIC3_isr>:
    89c9:	cc 00 15    	ldd	#15 <_.xy+0x11>
    89cc:	bd 88 bb    	jsr	88bb <error_fatal>
    89cf:	39          	rts

000089d0 <error_TIC2_isr>:
    89d0:	cc 00 16    	ldd	#16 <_.xy+0x12>
    89d3:	bd 88 bb    	jsr	88bb <error_fatal>
    89d6:	39          	rts

000089d7 <error_TIC1_isr>:
    89d7:	cc 00 17    	ldd	#17 <_.xy+0x13>
    89da:	bd 88 bb    	jsr	88bb <error_fatal>
    89dd:	39          	rts

000089de <error_RTI_isr>:
    89de:	cc 00 18    	ldd	#18 <_.xy+0x14>
    89e1:	bd 88 bb    	jsr	88bb <error_fatal>
    89e4:	39          	rts

000089e5 <error_IRQ_isr>:
    89e5:	cc 00 19    	ldd	#19 <_.xy+0x15>
    89e8:	bd 88 bb    	jsr	88bb <error_fatal>
    89eb:	39          	rts

000089ec <error_XIRQ_isr>:
    89ec:	cc 00 1a    	ldd	#1a <_.xy+0x16>
    89ef:	bd 88 bb    	jsr	88bb <error_fatal>
    89f2:	39          	rts

000089f3 <error_SWI_isr>:
    89f3:	cc 00 1b    	ldd	#1b <_.xy+0x17>
    89f6:	bd 88 bb    	jsr	88bb <error_fatal>
    89f9:	39          	rts

000089fa <error_COP_isr>:
    89fa:	cc 00 1c    	ldd	#1c <_.xy+0x18>
    89fd:	bd 88 bb    	jsr	88bb <error_fatal>
    8a00:	39          	rts

00008a01 <error_ILLOP_isr>:
    8a01:	cc 00 1d    	ldd	#1d <_.xy+0x19>
    8a04:	bd 88 bb    	jsr	88bb <error_fatal>
    8a07:	39          	rts

00008a08 <error_CLM_isr>:
    8a08:	cc 00 1e    	ldd	#1e <_.xy+0x1a>
    8a0b:	bd 88 bb    	jsr	88bb <error_fatal>
    8a0e:	39          	rts

00008a0f <error_RESET_isr>:
    8a0f:	cc 00 1f    	ldd	#1f <_.xy+0x1b>
    8a12:	bd 88 bb    	jsr	88bb <error_fatal>
    8a15:	39          	rts

00008a16 <illop_isr>:
    8a16:	bf c5 2a    	sts	c52a <illop_sp>

00008a19 <.LM49>:
    8a19:	fe c5 2a    	ldx	c52a <illop_sp>
    8a1c:	ec 08       	ldd	8,x
    8a1e:	fd c5 2c    	std	c52c <illop_address>

00008a21 <.LM50>:
    8a21:	bd 88 d2    	jsr	88d2 <error_address>

00008a24 <.LM51>:
    8a24:	39          	rts

00008a25 <set_interrupt>:
    8a25:	c1 14       	cmpb	#20
    8a27:	22 0d       	bhi	8a36 <.L26>

00008a29 <.LM54>:
    8a29:	4f          	clra
    8a2a:	05          	asld
    8a2b:	c3 ff d6    	addd	#ffd6 <__normvect_start>
    8a2e:	30          	tsx
    8a2f:	1a ee 02    	ldy	2,x
    8a32:	8f          	xgdx
    8a33:	1a ef 00    	sty	0,x

00008a36 <.L26>:
    8a36:	39          	rts

00008a37 <init_interrupts>:
    8a37:	18 ce 00 00 	ldy	#0 <_.tmp>

00008a3b <.L32>:
    8a3b:	18 df 00    	sty	*0 <_.tmp>
    8a3e:	dc 00       	ldd	*0 <_.tmp>
    8a40:	05          	asld
    8a41:	37          	pshb
    8a42:	36          	psha
    8a43:	38          	pulx
    8a44:	c3 ff d6    	addd	#ffd6 <__normvect_start>
    8a47:	8f          	xgdx
    8a48:	c3 bf d6    	addd	#bfd6 <__specvect_start>
    8a4b:	dd 02       	std	*2 <_.z>
    8a4d:	18 df 04    	sty	*4 <_.xy>
    8a50:	18 de 02    	ldy	*2 <_.z>
    8a53:	18 ee 00    	ldy	0,y
    8a56:	1a ef 00    	sty	0,x
    8a59:	18 de 04    	ldy	*4 <_.xy>

00008a5c <.LM59>:
    8a5c:	18 08       	iny
    8a5e:	18 8c 00 13 	cpy	#13 <_.xy+0xf>
    8a62:	2f d7       	ble	8a3b <.L32>

00008a64 <.LM60>:
    8a64:	cc 8a 16    	ldd	#8a16 <illop_isr>
    8a67:	fd ff f8    	std	fff8 <__normvect_start+0x22>

00008a6a <.LM61>:
    8a6a:	cc 88 53    	ldd	#8853 <_start>
    8a6d:	fd ff fe    	std	fffe <__normvect_start+0x28>

00008a70 <.LM62>:
    8a70:	39          	rts

00008a71 <clock_reset>:
    8a71:	8f          	xgdx

00008a72 <.LM2>:
    8a72:	4f          	clra
    8a73:	5f          	clrb
    8a74:	ed 00       	std	0,x

00008a76 <.LM3>:
    8a76:	ed 02       	std	2,x

00008a78 <.LM4>:
    8a78:	ed 04       	std	4,x

00008a7a <.LM5>:
    8a7a:	39          	rts

00008a7b <clock_add_ms>:
    8a7b:	18 8f       	xgdy

00008a7d <.LBB2>:
    8a7d:	cd ee 00    	ldx	0,y

00008a80 <.LM8>:
    8a80:	df 04       	stx	*4 <_.xy>
    8a82:	30          	tsx
    8a83:	ec 02       	ldd	2,x
    8a85:	18 e3 00    	addd	0,y
    8a88:	18 ed 00    	std	0,y

00008a8b <.LM9>:
    8a8b:	df 02       	stx	*2 <_.z>
    8a8d:	de 04       	ldx	*4 <_.xy>
    8a8f:	df 00       	stx	*0 <_.tmp>
    8a91:	1a 93 00    	cpd	*0 <_.tmp>
    8a94:	25 09       	bcs	8a9f <.L4>
    8a96:	3c          	pshx
    8a97:	de 02       	ldx	*2 <_.z>
    8a99:	1a a3 02    	cpd	2,x
    8a9c:	38          	pulx
    8a9d:	24 14       	bcc	8ab3 <.L3>

00008a9f <.L4>:
    8a9f:	18 ec 02    	ldd	2,y
    8aa2:	c3 00 01    	addd	#1 <_.tmp+0x1>
    8aa5:	18 ed 02    	std	2,y

00008aa8 <.LM11>:
    8aa8:	26 09       	bne	8ab3 <.L3>

00008aaa <.LM12>:
    8aaa:	18 ec 04    	ldd	4,y
    8aad:	c3 00 01    	addd	#1 <_.tmp+0x1>
    8ab0:	18 ed 04    	std	4,y

00008ab3 <.L3>:
    8ab3:	39          	rts

00008ab4 <clock_add_sec>:
    8ab4:	39          	rts

00008ab5 <clock_compare>:
    8ab5:	3c          	pshx
    8ab6:	3c          	pshx
    8ab7:	3c          	pshx
    8ab8:	30          	tsx
    8ab9:	ed 04       	std	4,x

00008abb <.LBB3>:
    8abb:	18 ce 00 03 	ldy	#3 <_.z+0x1>

00008abf <.L8>:
    8abf:	18 09       	dey

00008ac1 <.LM19>:
    8ac1:	18 df 00    	sty	*0 <_.tmp>
    8ac4:	dc 00       	ldd	*0 <_.tmp>
    8ac6:	05          	asld
    8ac7:	18 df 04    	sty	*4 <_.xy>
    8aca:	18 30       	tsy
    8acc:	cd ee 04    	ldx	4,y
    8acf:	dd 00       	std	*0 <_.tmp>
    8ad1:	8f          	xgdx
    8ad2:	d3 00       	addd	*0 <_.tmp>
    8ad4:	8f          	xgdx
    8ad5:	18 e3 08    	addd	8,y
    8ad8:	18 ed 02    	std	2,y
    8adb:	ec 00       	ldd	0,x
    8add:	18 ee 02    	ldy	2,y
    8ae0:	18 df 02    	sty	*2 <_.z>
    8ae3:	18 de 04    	ldy	*4 <_.xy>
    8ae6:	3c          	pshx
    8ae7:	de 02       	ldx	*2 <_.z>
    8ae9:	1a a3 00    	cpd	0,x
    8aec:	38          	pulx
    8aed:	24 05       	bcc	8af4 <.L11>
    8aef:	cc ff ff    	ldd	#ffff <__normvect_start+0x29>
    8af2:	20 3d       	bra	8b31 <.L7>

00008af4 <.L11>:
    8af4:	18 df 00    	sty	*0 <_.tmp>
    8af7:	dc 00       	ldd	*0 <_.tmp>
    8af9:	05          	asld
    8afa:	30          	tsx
    8afb:	18 df 04    	sty	*4 <_.xy>
    8afe:	1a ee 04    	ldy	4,x
    8b01:	dd 00       	std	*0 <_.tmp>
    8b03:	18 8f       	xgdy
    8b05:	d3 00       	addd	*0 <_.tmp>
    8b07:	18 8f       	xgdy
    8b09:	e3 08       	addd	8,x
    8b0b:	ed 02       	std	2,x
    8b0d:	18 ec 00    	ldd	0,y
    8b10:	18 de 04    	ldy	*4 <_.xy>
    8b13:	dd 04       	std	*4 <_.xy>
    8b15:	ec 02       	ldd	2,x
    8b17:	dd 02       	std	*2 <_.z>
    8b19:	dc 04       	ldd	*4 <_.xy>
    8b1b:	3c          	pshx
    8b1c:	de 02       	ldx	*2 <_.z>
    8b1e:	1a a3 00    	cpd	0,x
    8b21:	38          	pulx
    8b22:	23 05       	bls	8b29 <.L10>
    8b24:	cc 00 01    	ldd	#1 <_.tmp+0x1>
    8b27:	20 08       	bra	8b31 <.L7>

00008b29 <.L10>:
    8b29:	18 8c 00 00 	cpy	#0 <_.tmp>
    8b2d:	2e 90       	bgt	8abf <.L8>

00008b2f <.LM22>:
    8b2f:	4f          	clra
    8b30:	5f          	clrb

00008b31 <.L7>:
    8b31:	38          	pulx
    8b32:	38          	pulx
    8b33:	38          	pulx
    8b34:	39          	rts

00008b35 <presto_init>:
    8b35:	3c          	pshx
    8b36:	34          	des

00008b37 <.LM2>:
    8b37:	7d c1 39    	tst	c139 <presto_initialized>
    8b3a:	26 78       	bne	8bb4 <.L1>

00008b3c <.LM3>:
    8b3c:	30          	tsx
    8b3d:	6f 00       	clr	0,x

00008b3f <.L7>:
    8b3f:	c6 0d       	ldab	#13
    8b41:	18 30       	tsy
    8b43:	18 a6 00    	ldaa	0,y
    8b46:	3d          	mul
    8b47:	18 ed 01    	std	1,y
    8b4a:	c3 c5 2e    	addd	#c52e <tcb_list>
    8b4d:	18 8f       	xgdy
    8b4f:	30          	tsx
    8b50:	e6 00       	ldab	0,x
    8b52:	18 e7 00    	stab	0,y

00008b55 <.LM5>:
    8b55:	ec 01       	ldd	1,x
    8b57:	c3 c5 39    	addd	#c539 <tcb_list+0xb>
    8b5a:	18 30       	tsy
    8b5c:	cd ee 01    	ldx	1,y
    8b5f:	8f          	xgdx
    8b60:	c3 c5 3b    	addd	#c53b <tcb_list+0xd>
    8b63:	8f          	xgdx
    8b64:	18 8f       	xgdy
    8b66:	cd ef 00    	stx	0,y

00008b69 <.LM6>:
    8b69:	30          	tsx
    8b6a:	6c 00       	inc	0,x
    8b6c:	e6 00       	ldab	0,x
    8b6e:	c1 0c       	cmpb	#12
    8b70:	23 cd       	bls	8b3f <.L7>

00008b72 <.LM7>:
    8b72:	18 ce c5 ca 	ldy	#c5ca <tcb_list+0x9c>
    8b76:	18 ff c1 37 	sty	c137 <free_tcb_p>

00008b7a <.LM8>:
    8b7a:	ce c5 2e    	ldx	#c52e <tcb_list>
    8b7d:	ff c5 d5    	stx	c5d5 <tcb_list+0xa7>

00008b80 <.LM9>:
    8b80:	4f          	clra
    8b81:	5f          	clrb
    8b82:	fd c5 c8    	std	c5c8 <tcb_list+0x9a>

00008b85 <.LM10>:
    8b85:	bd 97 e2    	jsr	97e2 <kernel_timer_init>

00008b88 <.LM11>:
    8b88:	bd 91 28    	jsr	9128 <kernel_mail_init>

00008b8b <.LM12>:
    8b8b:	bd 96 51    	jsr	9651 <kernel_semaphore_init>

00008b8e <.LM13>:
    8b8e:	bd 93 03    	jsr	9303 <kernel_memory_init>

00008b91 <.LM14>:
    8b91:	c6 01       	ldab	#1
    8b93:	f7 c1 39    	stab	c139 <presto_initialized>

00008b96 <.LM15>:
    8b96:	5f          	clrb
    8b97:	37          	pshb
    8b98:	34          	des
    8b99:	18 ce 01 00 	ldy	#100 <_.frame+0xba>
    8b9d:	18 3c       	pshy
    8b9f:	ce c5 d7    	ldx	#c5d7 <idle_stack>
    8ba2:	3c          	pshx
    8ba3:	cc 8f 36    	ldd	#8f36 <idle_task>
    8ba6:	8d 0f       	bsr	8bb7 <presto_task_create>
    8ba8:	f7 c6 d9    	stab	c6d9 <idle_tid>

00008bab <.LM16>:
    8bab:	bd 8f 39    	jsr	8f39 <tid_to_tcbptr>
    8bae:	fd c6 d7    	std	c6d7 <idle_tcb_p>

00008bb1 <.LBE2>:
    8bb1:	38          	pulx
    8bb2:	38          	pulx
    8bb3:	38          	pulx

00008bb4 <.L1>:
    8bb4:	38          	pulx
    8bb5:	31          	ins
    8bb6:	39          	rts

00008bb7 <presto_task_create>:
    8bb7:	3c          	pshx
    8bb8:	3c          	pshx
    8bb9:	30          	tsx
    8bba:	ed 00       	std	0,x

00008bbc <.LBB3>:
    8bbc:	f6 c1 39    	ldab	c139 <presto_initialized>
    8bbf:	26 06       	bne	8bc7 <.L10>

00008bc1 <.LM20>:
    8bc1:	cc 00 01    	ldd	#1 <_.tmp+0x1>
    8bc4:	bd 88 bb    	jsr	88bb <error_fatal>

00008bc7 <.L10>:
    8bc7:	fc c1 37    	ldd	c137 <free_tcb_p>
    8bca:	26 06       	bne	8bd2 <.L11>

00008bcc <.LM22>:
    8bcc:	cc 00 02    	ldd	#2 <_.z>
    8bcf:	bd 88 bb    	jsr	88bb <error_fatal>

00008bd2 <.L11>:
    8bd2:	07          	tpa
    8bd3:	0f          	sei

00008bd4 <.LM24>:
    8bd4:	fe c1 37    	ldx	c137 <free_tcb_p>
    8bd7:	18 30       	tsy
    8bd9:	cd ef 02    	stx	2,y

00008bdc <.LM25>:
    8bdc:	ee 0b       	ldx	11,x
    8bde:	ff c1 37    	stx	c137 <free_tcb_p>

00008be1 <.LM26>:
    8be1:	06          	tap

00008be2 <.LM27>:
    8be2:	cd ee 06    	ldx	6,y
    8be5:	8f          	xgdx
    8be6:	18 e3 08    	addd	8,y
    8be9:	8f          	xgdx
    8bea:	8f          	xgdx
    8beb:	18 8f       	xgdy
    8bed:	18 09       	dey
    8bef:	30          	tsx
    8bf0:	ee 02       	ldx	2,x
    8bf2:	1a ef 03    	sty	3,x

00008bf5 <.LM28>:
    8bf5:	df 04       	stx	*4 <_.xy>
    8bf7:	30          	tsx
    8bf8:	ec 06       	ldd	6,x
    8bfa:	ee 02       	ldx	2,x
    8bfc:	ed 05       	std	5,x
    8bfe:	de 04       	ldx	*4 <_.xy>

00008c00 <.LM29>:
    8c00:	30          	tsx
    8c01:	e6 0b       	ldab	11,x
    8c03:	ee 02       	ldx	2,x
    8c05:	e7 08       	stab	8,x
    8c07:	de 04       	ldx	*4 <_.xy>

00008c09 <.LM30>:
    8c09:	30          	tsx
    8c0a:	ee 02       	ldx	2,x
    8c0c:	e7 07       	stab	7,x

00008c0e <.LM31>:
    8c0e:	5f          	clrb
    8c0f:	e7 09       	stab	9,x

00008c11 <.LM32>:
    8c11:	e7 0a       	stab	10,x
    8c13:	de 04       	ldx	*4 <_.xy>

00008c15 <.LM33>:
    8c15:	30          	tsx
    8c16:	e6 01       	ldab	1,x
    8c18:	18 e7 00    	stab	0,y
    8c1b:	18 09       	dey

00008c1d <.LM34>:
    8c1d:	4f          	clra
    8c1e:	e6 00       	ldab	0,x
    8c20:	18 e7 00    	stab	0,y
    8c23:	18 09       	dey

00008c25 <.LM35>:
    8c25:	c6 66       	ldab	#102
    8c27:	18 e7 00    	stab	0,y
    8c2a:	18 09       	dey

00008c2c <.LM36>:
    8c2c:	c6 55       	ldab	#85
    8c2e:	18 e7 00    	stab	0,y
    8c31:	18 09       	dey

00008c33 <.LM37>:
    8c33:	c6 44       	ldab	#68
    8c35:	18 e7 00    	stab	0,y
    8c38:	18 09       	dey

00008c3a <.LM38>:
    8c3a:	c6 33       	ldab	#51
    8c3c:	18 e7 00    	stab	0,y
    8c3f:	18 09       	dey

00008c41 <.LM39>:
    8c41:	c6 11       	ldab	#17
    8c43:	18 e7 00    	stab	0,y
    8c46:	18 09       	dey

00008c48 <.LM40>:
    8c48:	c6 22       	ldab	#34
    8c4a:	18 e7 00    	stab	0,y
    8c4d:	18 09       	dey

00008c4f <.LM41>:
    8c4f:	5f          	clrb
    8c50:	18 e7 00    	stab	0,y
    8c53:	18 09       	dey

00008c55 <.LM42>:
    8c55:	c6 bb       	ldab	#187
    8c57:	18 e7 00    	stab	0,y
    8c5a:	18 09       	dey

00008c5c <.LM43>:
    8c5c:	c6 aa       	ldab	#170
    8c5e:	18 e7 00    	stab	0,y
    8c61:	18 09       	dey

00008c63 <.LM44>:
    8c63:	c6 dd       	ldab	#221
    8c65:	18 e7 00    	stab	0,y
    8c68:	18 09       	dey

00008c6a <.LM45>:
    8c6a:	c6 cc       	ldab	#204
    8c6c:	18 e7 00    	stab	0,y
    8c6f:	18 09       	dey

00008c71 <.LM46>:
    8c71:	c6 ff       	ldab	#255
    8c73:	18 e7 00    	stab	0,y
    8c76:	18 09       	dey

00008c78 <.LM47>:
    8c78:	c6 ee       	ldab	#238
    8c7a:	18 e7 00    	stab	0,y
    8c7d:	18 09       	dey

00008c7f <.LM48>:
    8c7f:	ee 02       	ldx	2,x
    8c81:	1a ef 01    	sty	1,x

00008c84 <.LM49>:
    8c84:	18 30       	tsy
    8c86:	18 e6 0b    	ldab	11,y
    8c89:	37          	pshb
    8c8a:	34          	des
    8c8b:	8f          	xgdx
    8c8c:	de 04       	ldx	*4 <_.xy>
    8c8e:	bd 8d eb    	jsr	8deb <priority_queue_insert_tcb>

00008c91 <.LM50>:
    8c91:	18 30       	tsy
    8c93:	18 ee 04    	ldy	4,y
    8c96:	4f          	clra
    8c97:	18 e6 00    	ldab	0,y
    8c9a:	31          	ins
    8c9b:	31          	ins

00008c9c <.LBE3>:
    8c9c:	38          	pulx
    8c9d:	38          	pulx
    8c9e:	39          	rts

00008c9f <presto_scheduler_start>:
    8c9f:	0f          	sei

00008ca0 <.LM54>:
    8ca0:	ce 8e c1    	ldx	#8ec1 <context_switch_isr>
    8ca3:	3c          	pshx
    8ca4:	c6 10       	ldab	#16
    8ca6:	bd 8a 25    	jsr	8a25 <set_interrupt>

00008ca9 <.LM55>:
    8ca9:	bd 97 e3    	jsr	97e3 <kernel_master_clock_start>

00008cac <.LM56>:
    8cac:	fc c1 35    	ldd	c135 <tcb_head_p>
    8caf:	fd c1 33    	std	c133 <current_tcb_p>

00008cb2 <.LM57>:
    8cb2:	31          	ins
    8cb3:	31          	ins
    8cb4:	26 06       	bne	8cbc <.L13>

00008cb6 <.LM58>:
    8cb6:	cc 00 03    	ldd	#3 <_.z+0x1>
    8cb9:	bd 88 bb    	jsr	88bb <error_fatal>

00008cbc <.L13>:
    8cbc:	fe c1 33    	ldx	c133 <current_tcb_p>
    8cbf:	ec 01       	ldd	1,x
    8cc1:	fd c1 3a    	std	c13a <global_new_sp>

00008cc4 <.LM60>:
    8cc4:	be c1 3a    	lds	c13a <global_new_sp>

00008cc7 <.LM61>:
    8cc7:	38          	pulx

00008cc8 <.LM62>:
    8cc8:	38          	pulx

00008cc9 <.LM63>:
    8cc9:	38          	pulx

00008cca <.LM64>:
    8cca:	3b          	rti

00008ccb <.LM65>:
    8ccb:	cc 00 05    	ldd	#5 <_.xy+0x1>
    8cce:	bd 88 bb    	jsr	88bb <error_fatal>

00008cd1 <.LM66>:
    8cd1:	39          	rts

00008cd2 <presto_priority_get>:
    8cd2:	bd 8f 39    	jsr	8f39 <tid_to_tcbptr>
    8cd5:	8f          	xgdx

00008cd6 <.LM69>:
    8cd6:	4f          	clra
    8cd7:	e6 08       	ldab	8,x

00008cd9 <.LBE4>:
    8cd9:	39          	rts

00008cda <presto_priority_set>:
    8cda:	3c          	pshx
    8cdb:	34          	des
    8cdc:	30          	tsx
    8cdd:	e7 02       	stab	2,x

00008cdf <.LBB5>:
    8cdf:	bd 8f 39    	jsr	8f39 <tid_to_tcbptr>
    8ce2:	30          	tsx
    8ce3:	ed 00       	std	0,x

00008ce5 <.LM73>:
    8ce5:	8f          	xgdx
    8ce6:	e6 08       	ldab	8,x
    8ce8:	30          	tsx
    8ce9:	e1 06       	cmpb	6,x
    8ceb:	27 1b       	beq	8d08 <.L16>

00008ced <.LM74>:
    8ced:	ec 00       	ldd	0,x
    8cef:	bd 8e 5a    	jsr	8e5a <priority_queue_remove_tcb>

00008cf2 <.LM75>:
    8cf2:	30          	tsx
    8cf3:	e6 06       	ldab	6,x
    8cf5:	ee 00       	ldx	0,x
    8cf7:	e7 07       	stab	7,x

00008cf9 <.LM76>:
    8cf9:	30          	tsx
    8cfa:	ee 00       	ldx	0,x
    8cfc:	e7 08       	stab	8,x

00008cfe <.LM77>:
    8cfe:	37          	pshb
    8cff:	34          	des
    8d00:	30          	tsx
    8d01:	ec 02       	ldd	2,x
    8d03:	bd 8d eb    	jsr	8deb <priority_queue_insert_tcb>
    8d06:	31          	ins
    8d07:	31          	ins

00008d08 <.L16>:
    8d08:	38          	pulx
    8d09:	31          	ins
    8d0a:	39          	rts

00008d0b <presto_priority_override>:
    8d0b:	3c          	pshx
    8d0c:	34          	des
    8d0d:	30          	tsx
    8d0e:	e7 02       	stab	2,x

00008d10 <.LBB6>:
    8d10:	bd 8f 39    	jsr	8f39 <tid_to_tcbptr>
    8d13:	30          	tsx
    8d14:	ed 00       	std	0,x

00008d16 <.LM81>:
    8d16:	8f          	xgdx
    8d17:	e6 08       	ldab	8,x
    8d19:	30          	tsx
    8d1a:	e1 06       	cmpb	6,x
    8d1c:	27 16       	beq	8d34 <.L18>

00008d1e <.LM82>:
    8d1e:	ec 00       	ldd	0,x
    8d20:	bd 8e 5a    	jsr	8e5a <priority_queue_remove_tcb>

00008d23 <.LM83>:
    8d23:	30          	tsx
    8d24:	e6 06       	ldab	6,x
    8d26:	ee 00       	ldx	0,x
    8d28:	e7 08       	stab	8,x

00008d2a <.LM84>:
    8d2a:	37          	pshb
    8d2b:	34          	des
    8d2c:	30          	tsx
    8d2d:	ec 02       	ldd	2,x
    8d2f:	bd 8d eb    	jsr	8deb <priority_queue_insert_tcb>
    8d32:	31          	ins
    8d33:	31          	ins

00008d34 <.L18>:
    8d34:	38          	pulx
    8d35:	31          	ins
    8d36:	39          	rts

00008d37 <presto_priority_restore>:
    8d37:	3c          	pshx

00008d38 <.LM87>:
    8d38:	bd 8f 39    	jsr	8f39 <tid_to_tcbptr>
    8d3b:	30          	tsx
    8d3c:	ed 00       	std	0,x

00008d3e <.LM88>:
    8d3e:	8f          	xgdx
    8d3f:	e6 08       	ldab	8,x
    8d41:	30          	tsx
    8d42:	ee 00       	ldx	0,x
    8d44:	e1 07       	cmpb	7,x
    8d46:	27 17       	beq	8d5f <.L20>

00008d48 <.LM89>:
    8d48:	30          	tsx
    8d49:	ec 00       	ldd	0,x
    8d4b:	bd 8e 5a    	jsr	8e5a <priority_queue_remove_tcb>

00008d4e <.LM90>:
    8d4e:	30          	tsx
    8d4f:	ee 00       	ldx	0,x
    8d51:	e6 07       	ldab	7,x
    8d53:	e7 08       	stab	8,x

00008d55 <.LM91>:
    8d55:	37          	pshb
    8d56:	34          	des
    8d57:	30          	tsx
    8d58:	ec 02       	ldd	2,x
    8d5a:	bd 8d eb    	jsr	8deb <priority_queue_insert_tcb>
    8d5d:	31          	ins
    8d5e:	31          	ins

00008d5f <.L20>:
    8d5f:	38          	pulx
    8d60:	39          	rts

00008d61 <presto_wait>:
    8d61:	3c          	pshx
    8d62:	3c          	pshx
    8d63:	30          	tsx
    8d64:	e7 03       	stab	3,x

00008d66 <.LBB8>:
    8d66:	fe c1 33    	ldx	c133 <current_tcb_p>
    8d69:	e7 09       	stab	9,x

00008d6b <.LM95>:
    8d6b:	fe c1 33    	ldx	c133 <current_tcb_p>
    8d6e:	e5 0a       	bitb	10,x
    8d70:	26 01       	bne	8d73 <.L22>

00008d72 <.LM96>:
    8d72:	3f          	swi

00008d73 <.L22>:
    8d73:	fe c1 33    	ldx	c133 <current_tcb_p>
    8d76:	6f 09       	clr	9,x

00008d78 <.LM98>:
    8d78:	07          	tpa
    8d79:	0f          	sei
    8d7a:	18 30       	tsy
    8d7c:	18 ed 00    	std	0,y

00008d7f <.LM99>:
    8d7f:	fe c1 33    	ldx	c133 <current_tcb_p>
    8d82:	18 e6 03    	ldab	3,y
    8d85:	e4 0a       	andb	10,x
    8d87:	18 e7 02    	stab	2,y

00008d8a <.LM100>:
    8d8a:	53          	comb
    8d8b:	e4 0a       	andb	10,x
    8d8d:	e7 0a       	stab	10,x

00008d8f <.LM101>:
    8d8f:	18 ec 00    	ldd	0,y
    8d92:	06          	tap

00008d93 <.LM102>:
    8d93:	18 30       	tsy
    8d95:	4f          	clra
    8d96:	18 e6 02    	ldab	2,y

00008d99 <.LBE8>:
    8d99:	38          	pulx
    8d9a:	38          	pulx
    8d9b:	39          	rts

00008d9c <presto_trigger_set>:
    8d9c:	fe c1 33    	ldx	c133 <current_tcb_p>
    8d9f:	ea 0a       	orab	10,x
    8da1:	e7 0a       	stab	10,x

00008da3 <.LM106>:
    8da3:	39          	rts

00008da4 <presto_trigger_clear>:
    8da4:	fe c1 33    	ldx	c133 <current_tcb_p>
    8da7:	53          	comb
    8da8:	e4 0a       	andb	10,x
    8daa:	e7 0a       	stab	10,x

00008dac <.LM109>:
    8dac:	39          	rts

00008dad <presto_trigger_poll>:
    8dad:	fe c1 33    	ldx	c133 <current_tcb_p>
    8db0:	e4 0a       	andb	10,x
    8db2:	4f          	clra

00008db3 <.LM112>:
    8db3:	39          	rts

00008db4 <presto_trigger_send>:
    8db4:	34          	des
    8db5:	30          	tsx
    8db6:	e7 00       	stab	0,x

00008db8 <.LBB9>:
    8db8:	bd 8f 39    	jsr	8f39 <tid_to_tcbptr>
    8dbb:	8f          	xgdx

00008dbc <.LM115>:
    8dbc:	18 30       	tsy
    8dbe:	18 e6 04    	ldab	4,y
    8dc1:	ea 0a       	orab	10,x
    8dc3:	e7 0a       	stab	10,x

00008dc5 <.LM116>:
    8dc5:	18 e6 04    	ldab	4,y
    8dc8:	e5 09       	bitb	9,x
    8dca:	27 01       	beq	8dcd <.L27>

00008dcc <.LM117>:
    8dcc:	3f          	swi

00008dcd <.L27>:
    8dcd:	31          	ins
    8dce:	39          	rts

00008dcf <kernel_trigger_set_noswitch>:
    8dcf:	34          	des
    8dd0:	30          	tsx
    8dd1:	e7 00       	stab	0,x

00008dd3 <.LBB10>:
    8dd3:	bd 8f 39    	jsr	8f39 <tid_to_tcbptr>
    8dd6:	8f          	xgdx

00008dd7 <.LM121>:
    8dd7:	18 30       	tsy
    8dd9:	18 e6 04    	ldab	4,y
    8ddc:	ea 0a       	orab	10,x
    8dde:	e7 0a       	stab	10,x

00008de0 <.LM122>:
    8de0:	31          	ins
    8de1:	39          	rts

00008de2 <kernel_current_task>:
    8de2:	fe c1 33    	ldx	c133 <current_tcb_p>
    8de5:	4f          	clra
    8de6:	e6 00       	ldab	0,x

00008de8 <.LM125>:
    8de8:	39          	rts

00008de9 <kernel_context_switch>:
    8de9:	3f          	swi

00008dea <.LM128>:
    8dea:	39          	rts

00008deb <priority_queue_insert_tcb>:
    8deb:	3c          	pshx
    8dec:	3c          	pshx
    8ded:	18 8f       	xgdy

00008def <.LBB11>:
    8def:	07          	tpa
    8df0:	0f          	sei
    8df1:	18 df 04    	sty	*4 <_.xy>
    8df4:	18 30       	tsy
    8df6:	18 ed 00    	std	0,y

00008df9 <.LM131>:
    8df9:	ce c1 35    	ldx	#c135 <tcb_head_p>

00008dfc <.LM132>:
    8dfc:	fc c1 35    	ldd	c135 <tcb_head_p>
    8dff:	18 df 02    	sty	*2 <_.z>
    8e02:	18 de 04    	ldy	*4 <_.xy>

00008e05 <.L38>:
    8e05:	df 04       	stx	*4 <_.xy>
    8e07:	de 02       	ldx	*2 <_.z>
    8e09:	ed 02       	std	2,x
    8e0b:	de 04       	ldx	*4 <_.xy>

00008e0d <.LM133>:
    8e0d:	30          	tsx
    8e0e:	ec 02       	ldd	2,x
    8e10:	de 04       	ldx	*4 <_.xy>
    8e12:	dd 00       	std	*0 <_.tmp>
    8e14:	27 19       	beq	8e2f <.L36>
    8e16:	dd 02       	std	*2 <_.z>
    8e18:	de 02       	ldx	*2 <_.z>
    8e1a:	e6 08       	ldab	8,x
    8e1c:	de 04       	ldx	*4 <_.xy>
    8e1e:	dd 04       	std	*4 <_.xy>
    8e20:	8f          	xgdx
    8e21:	30          	tsx
    8e22:	8f          	xgdx
    8e23:	dd 02       	std	*2 <_.z>
    8e25:	dc 04       	ldd	*4 <_.xy>
    8e27:	3c          	pshx
    8e28:	de 02       	ldx	*2 <_.z>
    8e2a:	e1 07       	cmpb	7,x
    8e2c:	38          	pulx
    8e2d:	24 14       	bcc	8e43 <.L35>

00008e2f <.L36>:
    8e2f:	df 04       	stx	*4 <_.xy>
    8e31:	30          	tsx
    8e32:	ee 02       	ldx	2,x
    8e34:	cd ef 0b    	stx	11,y
    8e37:	de 04       	ldx	*4 <_.xy>

00008e39 <.LM135>:
    8e39:	1a ef 00    	sty	0,x

00008e3c <.LM136>:
    8e3c:	30          	tsx
    8e3d:	ec 00       	ldd	0,x
    8e3f:	06          	tap

00008e40 <.LM138>:
    8e40:	38          	pulx
    8e41:	38          	pulx
    8e42:	39          	rts

00008e43 <.L35>:
    8e43:	18 df 04    	sty	*4 <_.xy>
    8e46:	18 30       	tsy
    8e48:	cd ee 02    	ldx	2,y
    8e4b:	8f          	xgdx
    8e4c:	c3 00 0b    	addd	#b <_.xy+0x7>
    8e4f:	8f          	xgdx

00008e50 <.LM140>:
    8e50:	ec 00       	ldd	0,x
    8e52:	18 df 02    	sty	*2 <_.z>
    8e55:	18 de 04    	ldy	*4 <_.xy>
    8e58:	20 ab       	bra	8e05 <.L38>

00008e5a <priority_queue_remove_tcb>:
    8e5a:	3c          	pshx
    8e5b:	dd 02       	std	*2 <_.z>

00008e5d <.LBB12>:
    8e5d:	07          	tpa
    8e5e:	0f          	sei
    8e5f:	18 30       	tsy
    8e61:	18 ed 00    	std	0,y

00008e64 <.LM143>:
    8e64:	20 0a       	bra	8e70 <.L52>

00008e66 <.L43>:
    8e66:	fe c1 35    	ldx	c135 <tcb_head_p>
    8e69:	1a ee 0b    	ldy	11,x
    8e6c:	18 ff c1 35 	sty	c135 <tcb_head_p>

00008e70 <.L52>:
    8e70:	dc 02       	ldd	*2 <_.z>
    8e72:	1a b3 c1 35 	cpd	c135 <tcb_head_p>
    8e76:	27 ee       	beq	8e66 <.L43>

00008e78 <.LM145>:
    8e78:	fe c1 35    	ldx	c135 <tcb_head_p>

00008e7b <.L53>:
    8e7b:	8c 00 00    	cpx	#0 <_.tmp>
    8e7e:	27 19       	beq	8e99 <.L51>

00008e80 <.LM147>:
    8e80:	dc 02       	ldd	*2 <_.z>
    8e82:	1a a3 0b    	cpd	11,x
    8e85:	26 0e       	bne	8e95 <.L47>
    8e87:	df 04       	stx	*4 <_.xy>
    8e89:	de 02       	ldx	*2 <_.z>
    8e8b:	1a ee 0b    	ldy	11,x
    8e8e:	de 04       	ldx	*4 <_.xy>
    8e90:	1a ef 0b    	sty	11,x
    8e93:	20 e6       	bra	8e7b <.L53>

00008e95 <.L47>:
    8e95:	ee 0b       	ldx	11,x
    8e97:	20 e2       	bra	8e7b <.L53>

00008e99 <.L51>:
    8e99:	18 30       	tsy
    8e9b:	18 ec 00    	ldd	0,y
    8e9e:	06          	tap

00008e9f <.LM150>:
    8e9f:	38          	pulx
    8ea0:	39          	rts

00008ea1 <scheduler_next_ready>:
    8ea1:	fe c1 35    	ldx	c135 <tcb_head_p>

00008ea4 <.LM153>:
    8ea4:	27 12       	beq	8eb8 <.L61>

00008ea6 <.L60>:
    8ea6:	6d 09       	tst	9,x
    8ea8:	26 02       	bne	8eac <.L58>
    8eaa:	8f          	xgdx

00008eab <.LM155>:
    8eab:	39          	rts

00008eac <.L58>:
    8eac:	e6 09       	ldab	9,x
    8eae:	e5 0a       	bitb	10,x
    8eb0:	27 02       	beq	8eb4 <.L59>
    8eb2:	8f          	xgdx

00008eb3 <.LM157>:
    8eb3:	39          	rts

00008eb4 <.L59>:
    8eb4:	ee 0b       	ldx	11,x
    8eb6:	26 ee       	bne	8ea6 <.L60>

00008eb8 <.L61>:
    8eb8:	cc 00 04    	ldd	#4 <_.xy>
    8ebb:	bd 88 bb    	jsr	88bb <error_fatal>

00008ebe <.LM160>:
    8ebe:	4f          	clra
    8ebf:	5f          	clrb

00008ec0 <.LBE13>:
    8ec0:	39          	rts

00008ec1 <context_switch_isr>:
    8ec1:	de 00       	ldx	*0 <_.tmp>
    8ec3:	3c          	pshx
    8ec4:	de 02       	ldx	*2 <_.z>
    8ec6:	3c          	pshx
    8ec7:	de 04       	ldx	*4 <_.xy>
    8ec9:	3c          	pshx

00008eca <.LM163>:
    8eca:	fe c1 33    	ldx	c133 <current_tcb_p>
    8ecd:	ec 01       	ldd	1,x
    8ecf:	1a a3 03    	cpd	3,x
    8ed2:	22 05       	bhi	8ed9 <.L64>
    8ed4:	1a a3 05    	cpd	5,x
    8ed7:	24 05       	bcc	8ede <.L63>

00008ed9 <.L64>:
    8ed9:	4f          	clra
    8eda:	5f          	clrb
    8edb:	bd 88 bb    	jsr	88bb <error_fatal>

00008ede <.L63>:
    8ede:	fe c1 33    	ldx	c133 <current_tcb_p>
    8ee1:	3c          	pshx
    8ee2:	32          	pula
    8ee3:	33          	pulb
    8ee4:	c3 00 01    	addd	#1 <_.tmp+0x1>
    8ee7:	fd c6 dc    	std	c6dc <old_task_stack_pointer_p>

00008eea <.LM166>:
    8eea:	ff c6 da    	stx	c6da <old_tcb_p>

00008eed <.LM167>:
    8eed:	8d b2       	bsr	8ea1 <scheduler_next_ready>
    8eef:	18 8f       	xgdy
    8ef1:	18 ff c1 33 	sty	c133 <current_tcb_p>

00008ef5 <.LM168>:
    8ef5:	18 bc c6 da 	cpy	c6da <old_tcb_p>
    8ef9:	27 31       	beq	8f2c <.L65>

00008efb <.LM169>:
    8efb:	ce 10 00    	ldx	#1000 <_.frame+0xfba>
    8efe:	e6 00       	ldab	0,x
    8f00:	c8 08       	eorb	#8
    8f02:	e7 00       	stab	0,x

00008f04 <.LM170>:
    8f04:	18 ec 01    	ldd	1,y
    8f07:	cd a3 03    	cpd	3,y
    8f0a:	22 05       	bhi	8f11 <.L67>
    8f0c:	cd a3 05    	cpd	5,y
    8f0f:	24 05       	bcc	8f16 <.L66>

00008f11 <.L67>:
    8f11:	4f          	clra
    8f12:	5f          	clrb
    8f13:	bd 88 bb    	jsr	88bb <error_fatal>

00008f16 <.L66>:
    8f16:	fe c1 33    	ldx	c133 <current_tcb_p>
    8f19:	ec 01       	ldd	1,x
    8f1b:	fd c1 3a    	std	c13a <global_new_sp>

00008f1e <.LM173>:
    8f1e:	bf c1 3c    	sts	c13c <global_old_sp>

00008f21 <.LM174>:
    8f21:	fe c6 dc    	ldx	c6dc <old_task_stack_pointer_p>
    8f24:	fc c1 3c    	ldd	c13c <global_old_sp>
    8f27:	ed 00       	std	0,x

00008f29 <.LM175>:
    8f29:	be c1 3a    	lds	c13a <global_new_sp>

00008f2c <.L65>:
    8f2c:	38          	pulx
    8f2d:	df 04       	stx	*4 <_.xy>
    8f2f:	38          	pulx
    8f30:	df 02       	stx	*2 <_.z>
    8f32:	38          	pulx
    8f33:	df 00       	stx	*0 <_.tmp>
    8f35:	3b          	rti

00008f36 <idle_task>:
    8f36:	3e          	wai
    8f37:	20 fd       	bra	8f36 <idle_task>

00008f39 <tid_to_tcbptr>:
    8f39:	34          	des
    8f3a:	30          	tsx
    8f3b:	e7 00       	stab	0,x

00008f3d <.LM181>:
    8f3d:	c1 0c       	cmpb	#12
    8f3f:	23 06       	bls	8f47 <.L74>
    8f41:	cc 00 06    	ldd	#6 <_.xy+0x2>
    8f44:	bd 88 bb    	jsr	88bb <error_fatal>

00008f47 <.L74>:
    8f47:	c6 0d       	ldab	#13
    8f49:	30          	tsx
    8f4a:	a6 00       	ldaa	0,x
    8f4c:	3d          	mul
    8f4d:	c3 c5 2e    	addd	#c52e <tcb_list>

00008f50 <.LM183>:
    8f50:	31          	ins
    8f51:	39          	rts

00008f52 <presto_mailbox_init>:
    8f52:	3c          	pshx
    8f53:	34          	des
    8f54:	30          	tsx
    8f55:	ed 00       	std	0,x

00008f57 <.LBB2>:
    8f57:	bd 8d e2    	jsr	8de2 <kernel_current_task>
    8f5a:	18 30       	tsy
    8f5c:	18 e7 02    	stab	2,y

00008f5f <.LM3>:
    8f5f:	4f          	clra
    8f60:	05          	asld
    8f61:	c3 c6 de    	addd	#c6de <default_mailbox>
    8f64:	8f          	xgdx
    8f65:	ec 00       	ldd	0,x
    8f67:	26 06       	bne	8f6f <.L2>

00008f69 <.LM4>:
    8f69:	18 ee 00    	ldy	0,y
    8f6c:	1a ef 00    	sty	0,x

00008f6f <.L2>:
    8f6f:	4f          	clra
    8f70:	5f          	clrb
    8f71:	30          	tsx
    8f72:	ee 00       	ldx	0,x
    8f74:	ed 00       	std	0,x

00008f76 <.LM6>:
    8f76:	ed 02       	std	2,x

00008f78 <.LM7>:
    8f78:	ed 04       	std	4,x

00008f7a <.LM8>:
    8f7a:	18 30       	tsy
    8f7c:	18 e6 02    	ldab	2,y
    8f7f:	e7 06       	stab	6,x

00008f81 <.LM9>:
    8f81:	18 e6 06    	ldab	6,y
    8f84:	e7 07       	stab	7,x

00008f86 <.LM10>:
    8f86:	38          	pulx
    8f87:	31          	ins
    8f88:	39          	rts

00008f89 <presto_mailbox_default>:
    8f89:	3c          	pshx
    8f8a:	30          	tsx
    8f8b:	ed 00       	std	0,x

00008f8d <.LM12>:
    8f8d:	bd 8d e2    	jsr	8de2 <kernel_current_task>
    8f90:	4f          	clra
    8f91:	05          	asld
    8f92:	c3 c6 de    	addd	#c6de <default_mailbox>
    8f95:	18 30       	tsy
    8f97:	cd ee 00    	ldx	0,y
    8f9a:	18 8f       	xgdy
    8f9c:	cd ef 00    	stx	0,y

00008f9f <.LM13>:
    8f9f:	38          	pulx
    8fa0:	39          	rts

00008fa1 <presto_envelope_message>:
    8fa1:	8f          	xgdx

00008fa2 <.LM15>:
    8fa2:	ec 03       	ldd	3,x

00008fa4 <.LM16>:
    8fa4:	39          	rts

00008fa5 <presto_envelope_payload>:
    8fa5:	8f          	xgdx

00008fa6 <.LM18>:
    8fa6:	ec 05       	ldd	5,x

00008fa8 <.LM19>:
    8fa8:	39          	rts

00008fa9 <presto_envelope_sender>:
    8fa9:	8f          	xgdx

00008faa <.LM21>:
    8faa:	4f          	clra
    8fab:	e6 00       	ldab	0,x

00008fad <.LM22>:
    8fad:	39          	rts

00008fae <presto_mail_send_to_task>:
    8fae:	4f          	clra
    8faf:	05          	asld
    8fb0:	c3 c6 de    	addd	#c6de <default_mailbox>
    8fb3:	8f          	xgdx
    8fb4:	ec 00       	ldd	0,x

00008fb6 <.LM25>:
    8fb6:	27 1a       	beq	8fd2 <.L7>

00008fb8 <.LM26>:
    8fb8:	18 30       	tsy
    8fba:	18 ee 06    	ldy	6,y
    8fbd:	18 3c       	pshy
    8fbf:	30          	tsx
    8fc0:	ee 06       	ldx	6,x
    8fc2:	3c          	pshx
    8fc3:	18 30       	tsy
    8fc5:	18 ee 06    	ldy	6,y
    8fc8:	18 3c       	pshy
    8fca:	8d 07       	bsr	8fd3 <presto_mail_send_to_box>

00008fcc <.LM27>:
    8fcc:	cc 00 01    	ldd	#1 <_.tmp+0x1>
    8fcf:	38          	pulx
    8fd0:	38          	pulx
    8fd1:	38          	pulx

00008fd2 <.L7>:
    8fd2:	39          	rts

00008fd3 <presto_mail_send_to_box>:
    8fd3:	3c          	pshx
    8fd4:	3c          	pshx
    8fd5:	34          	des
    8fd6:	30          	tsx
    8fd7:	ed 00       	std	0,x

00008fd9 <.LBB4>:
    8fd9:	26 06       	bne	8fe1 <.L10>

00008fdb <.LM31>:
    8fdb:	cc 00 08    	ldd	#8 <_.xy+0x4>
    8fde:	bd 88 bb    	jsr	88bb <error_fatal>

00008fe1 <.L10>:
    8fe1:	30          	tsx
    8fe2:	ee 07       	ldx	7,x
    8fe4:	26 06       	bne	8fec <.L11>

00008fe6 <.LM33>:
    8fe6:	cc 00 07    	ldd	#7 <_.xy+0x3>
    8fe9:	bd 88 bb    	jsr	88bb <error_fatal>

00008fec <.L11>:
    8fec:	18 30       	tsy
    8fee:	cd ee 09    	ldx	9,y
    8ff1:	18 ee 07    	ldy	7,y
    8ff4:	cd ef 03    	stx	3,y

00008ff7 <.LM35>:
    8ff7:	18 30       	tsy
    8ff9:	cd ee 0b    	ldx	11,y
    8ffc:	18 ee 07    	ldy	7,y
    8fff:	cd ef 05    	stx	5,y

00009002 <.LM36>:
    9002:	bd 8d e2    	jsr	8de2 <kernel_current_task>
    9005:	18 30       	tsy
    9007:	18 ee 07    	ldy	7,y
    900a:	18 e7 00    	stab	0,y

0000900d <.LM37>:
    900d:	30          	tsx
    900e:	ec 00       	ldd	0,x
    9010:	18 ed 01    	std	1,y

00009013 <.LM38>:
    9013:	07          	tpa
    9014:	0f          	sei
    9015:	ed 02       	std	2,x

00009017 <.LM39>:
    9017:	1a ee 00    	ldy	0,x
    901a:	cd ee 02    	ldx	2,y
    901d:	26 11       	bne	9030 <.L12>

0000901f <.LM40>:
    901f:	30          	tsx
    9020:	ec 07       	ldd	7,x
    9022:	18 ed 02    	std	2,y

00009025 <.LM41>:
    9025:	18 ed 04    	std	4,y

00009028 <.LM42>:
    9028:	cc 00 01    	ldd	#1 <_.tmp+0x1>
    902b:	18 ed 00    	std	0,y
    902e:	20 1d       	bra	904d <.L13>

00009030 <.L12>:
    9030:	18 30       	tsy
    9032:	18 ee 00    	ldy	0,y
    9035:	cd ee 04    	ldx	4,y
    9038:	18 30       	tsy
    903a:	18 ee 07    	ldy	7,y
    903d:	1a ef 07    	sty	7,x

00009040 <.LM44>:
    9040:	30          	tsx
    9041:	ee 00       	ldx	0,x
    9043:	1a ef 04    	sty	4,x

00009046 <.LM45>:
    9046:	ec 00       	ldd	0,x
    9048:	c3 00 01    	addd	#1 <_.tmp+0x1>
    904b:	ed 00       	std	0,x

0000904d <.L13>:
    904d:	18 30       	tsy
    904f:	18 ee 07    	ldy	7,y
    9052:	18 6f 08    	clr	8,y
    9055:	18 6f 07    	clr	7,y

00009058 <.LM47>:
    9058:	18 30       	tsy
    905a:	18 ec 02    	ldd	2,y
    905d:	06          	tap

0000905e <.LM48>:
    905e:	18 ee 00    	ldy	0,y
    9061:	18 e6 06    	ldab	6,y
    9064:	18 30       	tsy
    9066:	18 e7 04    	stab	4,y
    9069:	18 ee 00    	ldy	0,y
    906c:	18 e6 07    	ldab	7,y
    906f:	37          	pshb
    9070:	34          	des
    9071:	30          	tsx
    9072:	e6 06       	ldab	6,x
    9074:	bd 8d cf    	jsr	8dcf <kernel_trigger_set_noswitch>

00009077 <.LM49>:
    9077:	bd 8d e9    	jsr	8de9 <kernel_context_switch>

0000907a <.LBE4>:
    907a:	31          	ins
    907b:	31          	ins

0000907c <.LM50>:
    907c:	38          	pulx
    907d:	38          	pulx
    907e:	31          	ins
    907f:	39          	rts

00009080 <presto_mail_wait>:
    9080:	3c          	pshx
    9081:	30          	tsx
    9082:	ed 00       	std	0,x

00009084 <.LM52>:
    9084:	8f          	xgdx
    9085:	e6 07       	ldab	7,x
    9087:	bd 8d 61    	jsr	8d61 <presto_wait>

0000908a <.LM53>:
    908a:	30          	tsx
    908b:	ec 00       	ldd	0,x
    908d:	8d 02       	bsr	9091 <presto_mail_get>

0000908f <.LM54>:
    908f:	38          	pulx
    9090:	39          	rts

00009091 <presto_mail_get>:
    9091:	30          	tsx
    9092:	8f          	xgdx
    9093:	c3 ff f7    	addd	#fff7 <__normvect_start+0x21>
    9096:	8f          	xgdx
    9097:	35          	txs
    9098:	30          	tsx
    9099:	ed 00       	std	0,x

0000909b <.LBB5>:
    909b:	18 8f       	xgdy
    909d:	18 ee 02    	ldy	2,y
    90a0:	1a ef 02    	sty	2,x

000090a3 <.LM57>:
    90a3:	18 df 00    	sty	*0 <_.tmp>
    90a6:	de 00       	ldx	*0 <_.tmp>
    90a8:	27 75       	beq	911f <.L20>

000090aa <.LM58>:
    90aa:	30          	tsx
    90ab:	18 8f       	xgdy
    90ad:	8f          	xgdx
    90ae:	ec 01       	ldd	1,x
    90b0:	30          	tsx
    90b1:	ed 06       	std	6,x
    90b3:	bd 8d e2    	jsr	8de2 <kernel_current_task>
    90b6:	18 30       	tsy
    90b8:	18 ee 06    	ldy	6,y
    90bb:	18 e1 06    	cmpb	6,y
    90be:	27 04       	beq	90c4 <.L17>
    90c0:	4f          	clra
    90c1:	5f          	clrb
    90c2:	20 5c       	bra	9120 <.L15>

000090c4 <.L17>:
    90c4:	07          	tpa
    90c5:	0f          	sei
    90c6:	18 30       	tsy
    90c8:	18 ed 04    	std	4,y

000090cb <.LM60>:
    90cb:	18 ec 02    	ldd	2,y
    90ce:	18 ee 00    	ldy	0,y
    90d1:	cd a3 04    	cpd	4,y
    90d4:	26 0d       	bne	90e3 <.L18>

000090d6 <.LM61>:
    90d6:	4f          	clra
    90d7:	5f          	clrb
    90d8:	18 ed 02    	std	2,y

000090db <.LM62>:
    90db:	18 ed 04    	std	4,y

000090de <.LM63>:
    90de:	18 ed 00    	std	0,y
    90e1:	20 2f       	bra	9112 <.L19>

000090e3 <.L18>:
    90e3:	18 30       	tsy
    90e5:	18 ee 02    	ldy	2,y
    90e8:	cd ee 07    	ldx	7,y
    90eb:	18 30       	tsy
    90ed:	18 ee 00    	ldy	0,y
    90f0:	cd ef 02    	stx	2,y

000090f3 <.LM65>:
    90f3:	18 30       	tsy
    90f5:	cd ee 00    	ldx	0,y
    90f8:	ec 00       	ldd	0,x
    90fa:	c3 ff ff    	addd	#ffff <__normvect_start+0x29>
    90fd:	ed 00       	std	0,x

000090ff <.LM66>:
    90ff:	e6 06       	ldab	6,x
    9101:	18 e7 08    	stab	8,y
    9104:	e6 07       	ldab	7,x
    9106:	37          	pshb
    9107:	34          	des
    9108:	18 30       	tsy
    910a:	18 e6 0a    	ldab	10,y
    910d:	bd 8d cf    	jsr	8dcf <kernel_trigger_set_noswitch>
    9110:	31          	ins
    9111:	31          	ins

00009112 <.L19>:
    9112:	30          	tsx
    9113:	ee 02       	ldx	2,x
    9115:	6f 08       	clr	8,x
    9117:	6f 07       	clr	7,x

00009119 <.LM68>:
    9119:	18 30       	tsy
    911b:	18 ec 04    	ldd	4,y
    911e:	06          	tap

0000911f <.L20>:
    911f:	8f          	xgdx

00009120 <.L15>:
    9120:	30          	tsx
    9121:	8f          	xgdx
    9122:	c3 00 09    	addd	#9 <_.xy+0x5>
    9125:	8f          	xgdx
    9126:	35          	txs
    9127:	39          	rts

00009128 <kernel_mail_init>:
    9128:	ce 00 00    	ldx	#0 <_.tmp>
    912b:	18 ce 00 00 	ldy	#0 <_.tmp>

0000912f <.L26>:
    912f:	3c          	pshx
    9130:	32          	pula
    9131:	33          	pulb
    9132:	05          	asld
    9133:	c3 c6 de    	addd	#c6de <default_mailbox>
    9136:	dd 02       	std	*2 <_.z>
    9138:	df 04       	stx	*4 <_.xy>
    913a:	de 02       	ldx	*2 <_.z>
    913c:	1a ef 00    	sty	0,x
    913f:	de 04       	ldx	*4 <_.xy>

00009141 <.LM74>:
    9141:	08          	inx
    9142:	8c 00 0b    	cpx	#b <_.xy+0x7>
    9145:	2f e8       	ble	912f <.L26>

00009147 <.LBE6>:
    9147:	39          	rts

00009148 <presto_memory_allocate>:
    9148:	3c          	pshx
    9149:	3c          	pshx
    914a:	3c          	pshx
    914b:	3c          	pshx
    914c:	dd 00       	std	*0 <_.tmp>
    914e:	18 de 00    	ldy	*0 <_.tmp>

00009151 <.LBB2>:
    9151:	26 03       	bne	9156 <.LM3>
    9153:	7e 92 1a    	jmp	921a <.L1>

00009156 <.LM3>:
    9156:	30          	tsx
    9157:	6f 01       	clr	1,x
    9159:	6f 00       	clr	0,x

0000915b <.L12>:
    915b:	18 df 04    	sty	*4 <_.xy>
    915e:	18 30       	tsy
    9160:	18 ec 00    	ldd	0,y
    9163:	05          	asld
    9164:	05          	asld
    9165:	05          	asld
    9166:	18 a3 00    	subd	0,y
    9169:	05          	asld
    916a:	c3 c8 d5    	addd	#c8d5 <__stack_end>
    916d:	8f          	xgdx

0000916e <.LM5>:
    916e:	18 df 02    	sty	*2 <_.z>
    9171:	18 de 04    	ldy	*4 <_.xy>
    9174:	1a ac 02    	cpy	2,x
    9177:	23 03       	bls	917c <.LM6>
    9179:	7e 91 fc    	jmp	91fc <.L5>

0000917c <.LM6>:
    917c:	ec 06       	ldd	6,x
    917e:	27 7c       	beq	91fc <.L5>

00009180 <.LBB4>:
    9180:	07          	tpa
    9181:	0f          	sei
    9182:	18 de 02    	ldy	*2 <_.z>
    9185:	18 ed 02    	std	2,y

00009188 <.LM8>:
    9188:	ec 06       	ldd	6,x
    918a:	18 ed 06    	std	6,y
    918d:	18 de 04    	ldy	*4 <_.xy>

00009190 <.LM9>:
    9190:	dd 02       	std	*2 <_.z>
    9192:	df 04       	stx	*4 <_.xy>
    9194:	de 02       	ldx	*2 <_.z>
    9196:	ec 02       	ldd	2,x
    9198:	de 04       	ldx	*4 <_.xy>
    919a:	ed 06       	std	6,x

0000919c <.LM10>:
    919c:	ec 04       	ldd	4,x
    919e:	c3 00 01    	addd	#1 <_.tmp+0x1>
    91a1:	ed 04       	std	4,x

000091a3 <.LM11>:
    91a3:	30          	tsx
    91a4:	ec 02       	ldd	2,x
    91a6:	06          	tap

000091a7 <.LM12>:
    91a7:	ec 00       	ldd	0,x
    91a9:	05          	asld
    91aa:	05          	asld
    91ab:	05          	asld
    91ac:	a3 00       	subd	0,x
    91ae:	05          	asld
    91af:	c3 c8 d5    	addd	#c8d5 <__stack_end>
    91b2:	ee 06       	ldx	6,x
    91b4:	ed 02       	std	2,x

000091b6 <.LM13>:
    91b6:	1a ef 00    	sty	0,x
    91b9:	de 04       	ldx	*4 <_.xy>

000091bb <.LM14>:
    91bb:	30          	tsx
    91bc:	ec 06       	ldd	6,x
    91be:	c3 00 04    	addd	#4 <_.xy>
    91c1:	ed 04       	std	4,x
    91c3:	de 04       	ldx	*4 <_.xy>

000091c5 <.LM15>:
    91c5:	ec 04       	ldd	4,x
    91c7:	1a a3 0a    	cpd	10,x
    91ca:	2f 02       	ble	91ce <.L9>

000091cc <.LM16>:
    91cc:	ed 0a       	std	10,x

000091ce <.L9>:
    91ce:	1a ac 0c    	cpy	12,x
    91d1:	23 03       	bls	91d6 <.L10>

000091d3 <.LM18>:
    91d3:	1a ef 0c    	sty	12,x

000091d6 <.L10>:
    91d6:	18 df 00    	sty	*0 <_.tmp>
    91d9:	dc 00       	ldd	*0 <_.tmp>
    91db:	e3 08       	addd	8,x
    91dd:	ed 08       	std	8,x

000091df <.LM20>:
    91df:	1a ac 02    	cpy	2,x
    91e2:	24 0c       	bcc	91f0 <.L11>

000091e4 <.LM21>:
    91e4:	30          	tsx
    91e5:	18 8f       	xgdy
    91e7:	e3 04       	addd	4,x
    91e9:	18 8f       	xgdy
    91eb:	c6 55       	ldab	#85
    91ed:	18 e7 00    	stab	0,y

000091f0 <.L11>:
    91f0:	df 04       	stx	*4 <_.xy>
    91f2:	30          	tsx
    91f3:	ec 06       	ldd	6,x
    91f5:	de 04       	ldx	*4 <_.xy>
    91f7:	c3 00 04    	addd	#4 <_.xy>
    91fa:	20 1e       	bra	921a <.L1>

000091fc <.L5>:
    91fc:	30          	tsx
    91fd:	18 df 04    	sty	*4 <_.xy>
    9200:	1a ee 00    	ldy	0,x
    9203:	18 08       	iny
    9205:	1a ef 00    	sty	0,x
    9208:	18 df 00    	sty	*0 <_.tmp>
    920b:	de 00       	ldx	*0 <_.tmp>
    920d:	18 de 04    	ldy	*4 <_.xy>
    9210:	8c 00 01    	cpx	#1 <_.tmp+0x1>
    9213:	2e 03       	bgt	9218 <.LM24>
    9215:	7e 91 5b    	jmp	915b <.L12>

00009218 <.LM24>:
    9218:	4f          	clra
    9219:	5f          	clrb

0000921a <.L1>:
    921a:	38          	pulx
    921b:	38          	pulx
    921c:	38          	pulx
    921d:	38          	pulx
    921e:	39          	rts

0000921f <presto_memory_free>:
    921f:	3c          	pshx
    9220:	3c          	pshx
    9221:	3c          	pshx
    9222:	dd 02       	std	*2 <_.z>

00009224 <.LBB5>:
    9224:	27 71       	beq	9297 <.L14>

00009226 <.LM28>:
    9226:	c3 ff fc    	addd	#fffc <__normvect_start+0x26>
    9229:	18 30       	tsy
    922b:	18 ed 04    	std	4,y

0000922e <.LM29>:
    922e:	37          	pshb
    922f:	36          	psha
    9230:	38          	pulx
    9231:	ee 02       	ldx	2,x
    9233:	cd ef 02    	stx	2,y

00009236 <.LM30>:
    9236:	18 8f       	xgdy
    9238:	cd ee 00    	ldx	0,y
    923b:	18 30       	tsy
    923d:	18 ee 02    	ldy	2,y
    9240:	cd ac 02    	cpx	2,y
    9243:	2c 18       	bge	925d <.L16>

00009245 <.LM31>:
    9245:	18 de 02    	ldy	*2 <_.z>
    9248:	df 00       	stx	*0 <_.tmp>
    924a:	18 8f       	xgdy
    924c:	d3 00       	addd	*0 <_.tmp>
    924e:	18 8f       	xgdy
    9250:	18 e6 00    	ldab	0,y
    9253:	c1 55       	cmpb	#85
    9255:	27 06       	beq	925d <.L16>

00009257 <.LM32>:
    9257:	cc 00 09    	ldd	#9 <_.xy+0x5>
    925a:	bd 88 bb    	jsr	88bb <error_fatal>

0000925d <.L16>:
    925d:	07          	tpa
    925e:	0f          	sei
    925f:	18 30       	tsy
    9261:	18 ed 00    	std	0,y

00009264 <.LM34>:
    9264:	cd ee 02    	ldx	2,y
    9267:	ec 06       	ldd	6,x
    9269:	cd ee 04    	ldx	4,y
    926c:	ed 02       	std	2,x

0000926e <.LM35>:
    926e:	cd ee 04    	ldx	4,y
    9271:	18 ee 02    	ldy	2,y
    9274:	cd ef 06    	stx	6,y

00009277 <.LM36>:
    9277:	18 30       	tsy
    9279:	cd ee 02    	ldx	2,y
    927c:	ec 04       	ldd	4,x
    927e:	c3 ff ff    	addd	#ffff <__normvect_start+0x29>
    9281:	ed 04       	std	4,x

00009283 <.LM37>:
    9283:	18 ec 00    	ldd	0,y
    9286:	06          	tap

00009287 <.LM38>:
    9287:	ec 08       	ldd	8,x
    9289:	18 ee 04    	ldy	4,y
    928c:	18 a3 00    	subd	0,y
    928f:	ed 08       	std	8,x

00009291 <.LM39>:
    9291:	18 6f 01    	clr	1,y
    9294:	18 6f 00    	clr	0,y

00009297 <.L14>:
    9297:	38          	pulx
    9298:	38          	pulx
    9299:	38          	pulx
    929a:	39          	rts

0000929b <memory_debug>:
    929b:	3c          	pshx
    929c:	30          	tsx
    929d:	ed 00       	std	0,x
    929f:	1a ee 04    	ldy	4,x

000092a2 <.LM42>:
    92a2:	1a 83 00 01 	cpd	#1 <_.tmp+0x1>
    92a6:	22 59       	bhi	9301 <.L18>

000092a8 <.LM43>:
    92a8:	05          	asld
    92a9:	05          	asld
    92aa:	05          	asld
    92ab:	a3 00       	subd	0,x
    92ad:	05          	asld
    92ae:	37          	pshb
    92af:	36          	psha
    92b0:	38          	pulx
    92b1:	c3 c8 d5    	addd	#c8d5 <__stack_end>
    92b4:	8f          	xgdx
    92b5:	dd 04       	std	*4 <_.xy>
    92b7:	ec 00       	ldd	0,x
    92b9:	18 ed 00    	std	0,y
    92bc:	dd 02       	std	*2 <_.z>

000092be <.LM44>:
    92be:	de 04       	ldx	*4 <_.xy>
    92c0:	8f          	xgdx
    92c1:	c3 c8 d7    	addd	#c8d7 <__stack_end+0x2>
    92c4:	8f          	xgdx
    92c5:	ec 00       	ldd	0,x
    92c7:	18 ed 02    	std	2,y
    92ca:	dd 02       	std	*2 <_.z>

000092cc <.LM45>:
    92cc:	de 04       	ldx	*4 <_.xy>
    92ce:	8f          	xgdx
    92cf:	c3 c8 d9    	addd	#c8d9 <__stack_end+0x4>
    92d2:	8f          	xgdx
    92d3:	ec 00       	ldd	0,x
    92d5:	18 ed 04    	std	4,y
    92d8:	dd 02       	std	*2 <_.z>

000092da <.LM46>:
    92da:	de 04       	ldx	*4 <_.xy>
    92dc:	8f          	xgdx
    92dd:	c3 c8 dd    	addd	#c8dd <__stack_end+0x8>
    92e0:	8f          	xgdx
    92e1:	ec 00       	ldd	0,x
    92e3:	18 ed 06    	std	6,y
    92e6:	dd 02       	std	*2 <_.z>

000092e8 <.LM47>:
    92e8:	de 04       	ldx	*4 <_.xy>
    92ea:	8f          	xgdx
    92eb:	c3 c8 df    	addd	#c8df <__stack_end+0xa>
    92ee:	8f          	xgdx
    92ef:	ec 00       	ldd	0,x
    92f1:	18 ed 08    	std	8,y
    92f4:	dd 02       	std	*2 <_.z>
    92f6:	dc 04       	ldd	*4 <_.xy>

000092f8 <.LM48>:
    92f8:	c3 c8 e1    	addd	#c8e1 <__stack_end+0xc>
    92fb:	8f          	xgdx
    92fc:	ee 00       	ldx	0,x
    92fe:	cd ef 0a    	stx	10,y

00009301 <.L18>:
    9301:	38          	pulx
    9302:	39          	rts

00009303 <kernel_memory_init>:
    9303:	30          	tsx
    9304:	8f          	xgdx
    9305:	c3 ff e8    	addd	#ffe8 <__normvect_start+0x12>
    9308:	8f          	xgdx
    9309:	35          	txs

0000930a <.LM51>:
    930a:	cc 00 0a    	ldd	#a <_.xy+0x6>
    930d:	30          	tsx
    930e:	ed 00       	std	0,x
    9310:	18 ce 00 14 	ldy	#14 <_.xy+0x10>
    9314:	1a ef 02    	sty	2,x
    9317:	18 30       	tsy
    9319:	cc 00 14    	ldd	#14 <_.xy+0x10>
    931c:	18 ed 0a    	std	10,y
    931f:	18 ec 00    	ldd	0,y
    9322:	18 ed 08    	std	8,y

00009325 <.LM52>:
    9325:	ce 00 19    	ldx	#19 <_.xy+0x15>
    9328:	cd ef 00    	stx	0,y
    932b:	cc 00 0a    	ldd	#a <_.xy+0x6>
    932e:	18 ed 02    	std	2,y
    9331:	18 ed 06    	std	6,y
    9334:	18 ec 00    	ldd	0,y
    9337:	18 ed 04    	std	4,y

0000933a <.LM53>:
    933a:	cc c8 f1    	ldd	#c8f1 <membytes>

0000933d <.LM54>:
    933d:	18 6f 0d    	clr	13,y
    9340:	18 6f 0c    	clr	12,y
    9343:	dd 02       	std	*2 <_.z>

00009345 <.L32>:
    9345:	30          	tsx
    9346:	ec 0c       	ldd	12,x
    9348:	05          	asld
    9349:	05          	asld
    934a:	05          	asld
    934b:	a3 0c       	subd	12,x
    934d:	05          	asld
    934e:	ed 0e       	std	14,x
    9350:	c3 c8 d5    	addd	#c8d5 <__stack_end>
    9353:	ed 16       	std	22,x

00009355 <.LM56>:
    9355:	ec 0c       	ldd	12,x
    9357:	05          	asld
    9358:	ed 10       	std	16,x
    935a:	18 30       	tsy
    935c:	18 df 00    	sty	*0 <_.tmp>
    935f:	18 ee 10    	ldy	16,y
    9362:	18 8f       	xgdy
    9364:	d3 00       	addd	*0 <_.tmp>
    9366:	18 8f       	xgdy
    9368:	18 ee 04    	ldy	4,y
    936b:	ee 16       	ldx	22,x
    936d:	1a ef 00    	sty	0,x

00009370 <.LM57>:
    9370:	30          	tsx
    9371:	df 00       	stx	*0 <_.tmp>
    9373:	ee 10       	ldx	16,x
    9375:	8f          	xgdx
    9376:	d3 00       	addd	*0 <_.tmp>
    9378:	8f          	xgdx
    9379:	ee 08       	ldx	8,x
    937b:	18 30       	tsy
    937d:	18 ee 16    	ldy	22,y
    9380:	cd ef 02    	stx	2,y

00009383 <.LM58>:
    9383:	ce 00 00    	ldx	#0 <_.tmp>
    9386:	cd ef 04    	stx	4,y

00009389 <.LM59>:
    9389:	cd ef 0a    	stx	10,y

0000938c <.LM60>:
    938c:	cd ef 0c    	stx	12,y

0000938f <.LM61>:
    938f:	cd ef 08    	stx	8,y

00009392 <.LM62>:
    9392:	30          	tsx
    9393:	ec 0e       	ldd	14,x
    9395:	c3 c8 db    	addd	#c8db <__stack_end+0x6>
    9398:	18 8f       	xgdy
    939a:	dc 02       	ldd	*2 <_.z>
    939c:	18 ed 00    	std	0,y

0000939f <.LM63>:
    939f:	ee 16       	ldx	22,x
    93a1:	ec 00       	ldd	0,x
    93a3:	30          	tsx
    93a4:	ed 14       	std	20,x
    93a6:	dd 00       	std	*0 <_.tmp>
    93a8:	de 00       	ldx	*0 <_.tmp>
    93aa:	2b 66       	bmi	9412 <.L34>
    93ac:	27 64       	beq	9412 <.L34>

000093ae <.L31>:
    93ae:	18 30       	tsy
    93b0:	dd 04       	std	*4 <_.xy>
    93b2:	dc 02       	ldd	*2 <_.z>
    93b4:	18 ed 12    	std	18,y

000093b7 <.LM65>:
    93b7:	ce 00 00    	ldx	#0 <_.tmp>
    93ba:	dc 04       	ldd	*4 <_.xy>
    93bc:	18 df 04    	sty	*4 <_.xy>
    93bf:	18 de 02    	ldy	*2 <_.z>
    93c2:	cd ef 00    	stx	0,y

000093c5 <.LM66>:
    93c5:	18 08       	iny
    93c7:	18 08       	iny
    93c9:	18 08       	iny
    93cb:	18 08       	iny

000093cd <.LM67>:
    93cd:	18 df 02    	sty	*2 <_.z>
    93d0:	18 de 04    	ldy	*4 <_.xy>
    93d3:	18 ee 16    	ldy	22,y
    93d6:	de 02       	ldx	*2 <_.z>
    93d8:	8f          	xgdx
    93d9:	18 e3 02    	addd	2,y
    93dc:	8f          	xgdx

000093dd <.LM68>:
    93dd:	df 02       	stx	*2 <_.z>
    93df:	30          	tsx
    93e0:	ee 14       	ldx	20,x
    93e2:	8c 00 01    	cpx	#1 <_.tmp+0x1>
    93e5:	26 0d       	bne	93f4 <.L29>
    93e7:	ce 00 00    	ldx	#0 <_.tmp>
    93ea:	18 30       	tsy
    93ec:	18 ee 12    	ldy	18,y
    93ef:	cd ef 02    	stx	2,y
    93f2:	20 0e       	bra	9402 <.L27>

000093f4 <.L29>:
    93f4:	18 30       	tsy
    93f6:	18 ee 12    	ldy	18,y
    93f9:	dd 04       	std	*4 <_.xy>
    93fb:	dc 02       	ldd	*2 <_.z>
    93fd:	18 ed 02    	std	2,y

00009400 <.LBE8>:
    9400:	dc 04       	ldd	*4 <_.xy>

00009402 <.L27>:
    9402:	30          	tsx
    9403:	1a ee 14    	ldy	20,x
    9406:	18 09       	dey
    9408:	1a ef 14    	sty	20,x
    940b:	18 df 00    	sty	*0 <_.tmp>
    940e:	de 00       	ldx	*0 <_.tmp>
    9410:	2e 9c       	bgt	93ae <.L31>

00009412 <.L34>:
    9412:	18 30       	tsy
    9414:	cd ee 0c    	ldx	12,y
    9417:	08          	inx
    9418:	cd ef 0c    	stx	12,y
    941b:	8c 00 01    	cpx	#1 <_.tmp+0x1>
    941e:	2e 03       	bgt	9423 <.LBE6>
    9420:	7e 93 45    	jmp	9345 <.L32>

00009423 <.LBE6>:
    9423:	30          	tsx
    9424:	8f          	xgdx
    9425:	c3 00 18    	addd	#18 <_.xy+0x14>
    9428:	8f          	xgdx
    9429:	35          	txs
    942a:	39          	rts

0000942b <presto_semaphore_init>:
    942b:	3c          	pshx
    942c:	3c          	pshx
    942d:	3c          	pshx
    942e:	18 8f       	xgdy
    9430:	30          	tsx
    9431:	ec 08       	ldd	8,x

00009433 <.LBB2>:
    9433:	18 ed 00    	std	0,y

00009436 <.LM3>:
    9436:	18 ed 02    	std	2,y

00009439 <.LM4>:
    9439:	ce 00 00    	ldx	#0 <_.tmp>
    943c:	cd ef 06    	stx	6,y

0000943f <.LM5>:
    943f:	cd ef 08    	stx	8,y

00009442 <.LM6>:
    9442:	18 df 00    	sty	*0 <_.tmp>
    9445:	dc 00       	ldd	*0 <_.tmp>
    9447:	c3 00 0c    	addd	#c <_.xy+0x8>
    944a:	18 ed 0a    	std	10,y

0000944d <.LM7>:
    944d:	df 02       	stx	*2 <_.z>

0000944f <.L6>:
    944f:	dc 02       	ldd	*2 <_.z>
    9451:	05          	asld
    9452:	05          	asld
    9453:	30          	tsx
    9454:	d3 02       	addd	*2 <_.z>
    9456:	ed 00       	std	0,x
    9458:	18 df 00    	sty	*0 <_.tmp>
    945b:	d3 00       	addd	*0 <_.tmp>
    945d:	ed 02       	std	2,x
    945f:	c6 0d       	ldab	#13
    9461:	ee 02       	ldx	2,x
    9463:	e7 0c       	stab	12,x

00009465 <.LM9>:
    9465:	30          	tsx
    9466:	ec 00       	ldd	0,x
    9468:	18 df 00    	sty	*0 <_.tmp>
    946b:	d3 00       	addd	*0 <_.tmp>
    946d:	8f          	xgdx
    946e:	6f 0d       	clr	13,x

00009470 <.LM10>:
    9470:	30          	tsx
    9471:	ec 00       	ldd	0,x
    9473:	18 df 00    	sty	*0 <_.tmp>
    9476:	d3 00       	addd	*0 <_.tmp>
    9478:	ed 04       	std	4,x
    947a:	18 df 00    	sty	*0 <_.tmp>
    947d:	dc 00       	ldd	*0 <_.tmp>
    947f:	e3 00       	addd	0,x
    9481:	c3 00 11    	addd	#11 <_.xy+0xd>
    9484:	ee 04       	ldx	4,x
    9486:	ed 0f       	std	15,x

00009488 <.LM11>:
    9488:	de 02       	ldx	*2 <_.z>
    948a:	08          	inx
    948b:	3c          	pshx
    948c:	32          	pula
    948d:	33          	pulb
    948e:	df 02       	stx	*2 <_.z>
    9490:	1a 83 00 09 	cpd	#9 <_.xy+0x5>
    9494:	2f b9       	ble	944f <.L6>

00009496 <.LM12>:
    9496:	18 6f 3d    	clr	61,y
    9499:	18 6f 3c    	clr	60,y

0000949c <.LM13>:
    949c:	30          	tsx
    949d:	ee 0a       	ldx	10,x
    949f:	cd ef 04    	stx	4,y

000094a2 <.LM14>:
    94a2:	38          	pulx
    94a3:	38          	pulx
    94a4:	38          	pulx
    94a5:	39          	rts

000094a6 <presto_semaphore_request>:
    94a6:	30          	tsx
    94a7:	8f          	xgdx
    94a8:	c3 ff f3    	addd	#fff3 <__normvect_start+0x1d>
    94ab:	8f          	xgdx
    94ac:	35          	txs
    94ad:	30          	tsx
    94ae:	ed 00       	std	0,x

000094b0 <.LBB3>:
    94b0:	07          	tpa
    94b1:	0f          	sei
    94b2:	ed 06       	std	6,x

000094b4 <.LM17>:
    94b4:	1a ee 00    	ldy	0,x
    94b7:	18 ee 0a    	ldy	10,y
    94ba:	1a ef 04    	sty	4,x

000094bd <.LM18>:
    94bd:	18 8f       	xgdy
    94bf:	8f          	xgdx
    94c0:	8c 00 00    	cpx	#0 <_.tmp>
    94c3:	26 06       	bne	94cb <.L9>

000094c5 <.LM19>:
    94c5:	cc 00 0a    	ldd	#a <_.xy+0x6>
    94c8:	bd 88 bb    	jsr	88bb <error_fatal>

000094cb <.L9>:
    94cb:	18 30       	tsy
    94cd:	18 ee 00    	ldy	0,y
    94d0:	cd ee 0a    	ldx	10,y
    94d3:	ec 03       	ldd	3,x
    94d5:	18 ed 0a    	std	10,y

000094d8 <.LM21>:
    94d8:	18 30       	tsy
    94da:	18 ec 06    	ldd	6,y
    94dd:	06          	tap

000094de <.LM22>:
    94de:	bd 8d e2    	jsr	8de2 <kernel_current_task>
    94e1:	30          	tsx
    94e2:	ee 04       	ldx	4,x
    94e4:	e7 00       	stab	0,x

000094e6 <.LM23>:
    94e6:	18 30       	tsy
    94e8:	18 e6 10    	ldab	16,y
    94eb:	e7 01       	stab	1,x

000094ed <.LM24>:
    94ed:	07          	tpa
    94ee:	0f          	sei
    94ef:	18 ed 06    	std	6,y

000094f2 <.LM25>:
    94f2:	18 6f 03    	clr	3,y
    94f5:	18 6f 02    	clr	2,y
    94f8:	cd ee 00    	ldx	0,y
    94fb:	ee 02       	ldx	2,x
    94fd:	2b 08       	bmi	9507 <.L10>
    94ff:	27 06       	beq	9507 <.L10>
    9501:	cc 00 01    	ldd	#1 <_.tmp+0x1>
    9504:	18 ed 02    	std	2,y

00009507 <.L10>:
    9507:	30          	tsx
    9508:	ee 02       	ldx	2,x
    950a:	27 5d       	beq	9569 <.L11>

0000950c <.LBB4>:
    950c:	18 30       	tsy
    950e:	cd ee 00    	ldx	0,y
    9511:	ec 02       	ldd	2,x
    9513:	c3 ff ff    	addd	#ffff <__normvect_start+0x29>
    9516:	ed 02       	std	2,x

00009518 <.LM28>:
    9518:	bd 8d e2    	jsr	8de2 <kernel_current_task>
    951b:	18 30       	tsy
    951d:	18 e7 0c    	stab	12,y
    9520:	18 e6 10    	ldab	16,y
    9523:	37          	pshb
    9524:	34          	des
    9525:	18 30       	tsy
    9527:	18 e6 0e    	ldab	14,y
    952a:	bd 8d cf    	jsr	8dcf <kernel_trigger_set_noswitch>

0000952d <.LM29>:
    952d:	30          	tsx
    952e:	ee 02       	ldx	2,x
    9530:	ec 06       	ldd	6,x
    9532:	30          	tsx
    9533:	ed 0a       	std	10,x

00009535 <.LM30>:
    9535:	ec 02       	ldd	2,x
    9537:	c3 00 06    	addd	#6 <_.xy+0x2>
    953a:	ed 0c       	std	12,x
    953c:	1a ee 06    	ldy	6,x
    953f:	18 3c       	pshy
    9541:	30          	tsx
    9542:	ec 0e       	ldd	14,x
    9544:	bd 96 52    	jsr	9652 <insert_simuser_into_linked_list>

00009547 <.LM31>:
    9547:	38          	pulx
    9548:	38          	pulx
    9549:	30          	tsx
    954a:	ee 00       	ldx	0,x
    954c:	ee 04       	ldx	4,x
    954e:	27 38       	beq	9588 <.L15>

00009550 <.LM32>:
    9550:	18 30       	tsy
    9552:	18 ec 08    	ldd	8,y
    9555:	27 22       	beq	9579 <.L14>
    9557:	cd ee 0a    	ldx	10,y
    955a:	1a a3 00    	cpd	0,x
    955d:	27 1a       	beq	9579 <.L14>

0000955f <.LM33>:
    955f:	18 8f       	xgdy
    9561:	18 e6 00    	ldab	0,y
    9564:	bd 8d 37    	jsr	8d37 <presto_priority_restore>

00009567 <.LBE4>:
    9567:	20 10       	bra	9579 <.L14>

00009569 <.L11>:
    9569:	30          	tsx
    956a:	ec 00       	ldd	0,x
    956c:	c3 00 08    	addd	#8 <_.xy+0x4>
    956f:	1a ee 04    	ldy	4,x
    9572:	18 3c       	pshy
    9574:	bd 96 52    	jsr	9652 <insert_simuser_into_linked_list>
    9577:	31          	ins
    9578:	31          	ins

00009579 <.L14>:
    9579:	30          	tsx
    957a:	ee 00       	ldx	0,x
    957c:	ee 04       	ldx	4,x
    957e:	27 08       	beq	9588 <.L15>

00009580 <.LM36>:
    9580:	18 30       	tsy
    9582:	18 ec 00    	ldd	0,y
    9585:	bd 96 d4    	jsr	96d4 <promote_runners_to_top_waiter_priority>

00009588 <.L15>:
    9588:	18 30       	tsy
    958a:	18 ec 06    	ldd	6,y
    958d:	06          	tap

0000958e <.LM38>:
    958e:	18 ec 02    	ldd	2,y

00009591 <.LBE3>:
    9591:	30          	tsx
    9592:	8f          	xgdx
    9593:	c3 00 0d    	addd	#d <_.xy+0x9>
    9596:	8f          	xgdx
    9597:	35          	txs
    9598:	39          	rts

00009599 <presto_semaphore_wait>:
    9599:	18 8f       	xgdy

0000959b <.LM41>:
    959b:	30          	tsx
    959c:	e6 03       	ldab	3,x
    959e:	37          	pshb
    959f:	34          	des
    95a0:	18 8f       	xgdy
    95a2:	bd 94 a6    	jsr	94a6 <presto_semaphore_request>

000095a5 <.LM42>:
    95a5:	30          	tsx
    95a6:	e6 05       	ldab	5,x
    95a8:	bd 8d 61    	jsr	8d61 <presto_wait>
    95ab:	31          	ins
    95ac:	31          	ins

000095ad <.LM43>:
    95ad:	39          	rts

000095ae <presto_semaphore_release>:
    95ae:	3c          	pshx
    95af:	3c          	pshx
    95b0:	3c          	pshx
    95b1:	30          	tsx
    95b2:	ed 00       	std	0,x

000095b4 <.LBB5>:
    95b4:	07          	tpa
    95b5:	0f          	sei
    95b6:	ed 02       	std	2,x

000095b8 <.LM46>:
    95b8:	ec 00       	ldd	0,x
    95ba:	c3 00 06    	addd	#6 <_.xy+0x2>
    95bd:	1a ee 00    	ldy	0,x
    95c0:	18 ee 06    	ldy	6,y
    95c3:	18 3c       	pshy
    95c5:	bd 96 9b    	jsr	969b <remove_simuser_from_linked_list>
    95c8:	31          	ins
    95c9:	31          	ins
    95ca:	dd 00       	std	*0 <_.tmp>
    95cc:	26 08       	bne	95d6 <.L18>

000095ce <.LM47>:
    95ce:	18 30       	tsy
    95d0:	18 ec 02    	ldd	2,y
    95d3:	06          	tap

000095d4 <.LM48>:
    95d4:	20 77       	bra	964d <.L17>

000095d6 <.L18>:
    95d6:	30          	tsx
    95d7:	ee 00       	ldx	0,x
    95d9:	ee 04       	ldx	4,x
    95db:	27 06       	beq	95e3 <.L19>

000095dd <.LM50>:
    95dd:	bd 8d e2    	jsr	8de2 <kernel_current_task>
    95e0:	bd 8d 37    	jsr	8d37 <presto_priority_restore>

000095e3 <.L19>:
    95e3:	18 30       	tsy
    95e5:	18 ee 00    	ldy	0,y
    95e8:	cd ee 08    	ldx	8,y
    95eb:	18 30       	tsy
    95ed:	cd ef 04    	stx	4,y

000095f0 <.LM52>:
    95f0:	8f          	xgdx
    95f1:	dd 00       	std	*0 <_.tmp>
    95f3:	26 0c       	bne	9601 <.L20>

000095f5 <.LM53>:
    95f5:	cd ee 00    	ldx	0,y
    95f8:	ec 02       	ldd	2,x
    95fa:	c3 00 01    	addd	#1 <_.tmp+0x1>
    95fd:	ed 02       	std	2,x
    95ff:	20 3e       	bra	963f <.L21>

00009601 <.L20>:
    9601:	18 30       	tsy
    9603:	18 ee 04    	ldy	4,y
    9606:	18 e6 01    	ldab	1,y
    9609:	37          	pshb
    960a:	34          	des
    960b:	18 e6 00    	ldab	0,y
    960e:	bd 8d cf    	jsr	8dcf <kernel_trigger_set_noswitch>

00009611 <.LM55>:
    9611:	18 30       	tsy
    9613:	18 ec 02    	ldd	2,y
    9616:	c3 00 08    	addd	#8 <_.xy+0x4>
    9619:	cd ee 06    	ldx	6,y
    961c:	3c          	pshx
    961d:	8d 7c       	bsr	969b <remove_simuser_from_linked_list>

0000961f <.LM56>:
    961f:	18 30       	tsy
    9621:	18 ec 04    	ldd	4,y
    9624:	c3 00 06    	addd	#6 <_.xy+0x2>
    9627:	cd ee 08    	ldx	8,y
    962a:	3c          	pshx
    962b:	8d 25       	bsr	9652 <insert_simuser_into_linked_list>

0000962d <.LM57>:
    962d:	38          	pulx
    962e:	38          	pulx
    962f:	38          	pulx
    9630:	30          	tsx
    9631:	ee 00       	ldx	0,x
    9633:	ee 04       	ldx	4,x
    9635:	27 08       	beq	963f <.L21>

00009637 <.LM58>:
    9637:	18 30       	tsy
    9639:	18 ec 00    	ldd	0,y
    963c:	bd 96 d4    	jsr	96d4 <promote_runners_to_top_waiter_priority>

0000963f <.L21>:
    963f:	18 30       	tsy
    9641:	18 ec 02    	ldd	2,y
    9644:	06          	tap

00009645 <.LM60>:
    9645:	cd ee 04    	ldx	4,y
    9648:	27 03       	beq	964d <.L17>

0000964a <.LM61>:
    964a:	bd 8d e9    	jsr	8de9 <kernel_context_switch>

0000964d <.L17>:
    964d:	38          	pulx
    964e:	38          	pulx
    964f:	38          	pulx
    9650:	39          	rts

00009651 <kernel_semaphore_init>:
    9651:	39          	rts

00009652 <insert_simuser_into_linked_list>:
    9652:	3c          	pshx
    9653:	30          	tsx
    9654:	ed 00       	std	0,x

00009656 <.LBB6>:
    9656:	18 df 04    	sty	*4 <_.xy>
    9659:	1a ee 04    	ldy	4,x
    965c:	18 e6 00    	ldab	0,y
    965f:	18 de 04    	ldy	*4 <_.xy>
    9662:	bd 8c d2    	jsr	8cd2 <presto_priority_get>

00009665 <.LM67>:
    9665:	30          	tsx
    9666:	1a ee 00    	ldy	0,x

00009669 <.L32>:
    9669:	cd ee 00    	ldx	0,y

0000966c <.LM69>:
    966c:	27 04       	beq	9672 <.L30>
    966e:	e1 02       	cmpb	2,x
    9670:	23 1c       	bls	968e <.L29>

00009672 <.L30>:
    9672:	18 df 04    	sty	*4 <_.xy>
    9675:	18 30       	tsy
    9677:	18 ee 04    	ldy	4,y
    967a:	cd ef 03    	stx	3,y

0000967d <.LM71>:
    967d:	18 df 02    	sty	*2 <_.z>
    9680:	18 de 04    	ldy	*4 <_.xy>
    9683:	dd 04       	std	*4 <_.xy>
    9685:	dc 02       	ldd	*2 <_.z>
    9687:	18 ed 00    	std	0,y
    968a:	dc 04       	ldd	*4 <_.xy>

0000968c <.LM72>:
    968c:	38          	pulx
    968d:	39          	rts

0000968e <.L29>:
    968e:	df 00       	stx	*0 <_.tmp>
    9690:	18 de 00    	ldy	*0 <_.tmp>
    9693:	18 08       	iny
    9695:	18 08       	iny
    9697:	18 08       	iny

00009699 <.LM75>:
    9699:	20 ce       	bra	9669 <.L32>

0000969b <remove_simuser_from_linked_list>:
    969b:	18 ce 00 00 	ldy	#0 <_.tmp>

0000969f <.LM78>:
    969f:	8f          	xgdx

000096a0 <.LM79>:
    96a0:	20 2b       	bra	96cd <.L34>

000096a2 <.L39>:
    96a2:	dd 04       	std	*4 <_.xy>
    96a4:	8f          	xgdx
    96a5:	30          	tsx
    96a6:	8f          	xgdx
    96a7:	dd 02       	std	*2 <_.z>
    96a9:	dc 04       	ldd	*4 <_.xy>
    96ab:	3c          	pshx
    96ac:	de 02       	ldx	*2 <_.z>
    96ae:	1a a3 02    	cpd	2,x
    96b1:	38          	pulx
    96b2:	26 15       	bne	96c9 <.L37>

000096b4 <.LM81>:
    96b4:	dd 02       	std	*2 <_.z>
    96b6:	18 df 04    	sty	*4 <_.xy>
    96b9:	18 de 02    	ldy	*2 <_.z>
    96bc:	18 ee 03    	ldy	3,y
    96bf:	1a ef 00    	sty	0,x
    96c2:	18 de 04    	ldy	*4 <_.xy>

000096c5 <.LM82>:
    96c5:	18 08       	iny
    96c7:	20 04       	bra	96cd <.L34>

000096c9 <.L37>:
    96c9:	8f          	xgdx
    96ca:	08          	inx
    96cb:	08          	inx
    96cc:	08          	inx

000096cd <.L34>:
    96cd:	ec 00       	ldd	0,x
    96cf:	26 d1       	bne	96a2 <.L39>

000096d1 <.LM84>:
    96d1:	18 8f       	xgdy

000096d3 <.LBE7>:
    96d3:	39          	rts

000096d4 <promote_runners_to_top_waiter_priority>:
    96d4:	3c          	pshx
    96d5:	3c          	pshx
    96d6:	34          	des
    96d7:	30          	tsx
    96d8:	ed 00       	std	0,x

000096da <.LBB8>:
    96da:	18 8f       	xgdy
    96dc:	cd ee 08    	ldx	8,y

000096df <.LM88>:
    96df:	27 48       	beq	9729 <.L41>

000096e1 <.LM89>:
    96e1:	e6 00       	ldab	0,x
    96e3:	bd 8c d2    	jsr	8cd2 <presto_priority_get>
    96e6:	30          	tsx
    96e7:	e7 04       	stab	4,x

000096e9 <.LM90>:
    96e9:	1a ee 00    	ldy	0,x
    96ec:	18 ee 06    	ldy	6,y
    96ef:	1a ef 02    	sty	2,x
    96f2:	18 8f       	xgdy
    96f4:	8f          	xgdx
    96f5:	8c 00 00    	cpx	#0 <_.tmp>
    96f8:	27 2f       	beq	9729 <.L41>

000096fa <.L48>:
    96fa:	18 30       	tsy
    96fc:	18 ee 02    	ldy	2,y
    96ff:	18 e6 00    	ldab	0,y
    9702:	bd 8c d2    	jsr	8cd2 <presto_priority_get>
    9705:	30          	tsx
    9706:	e1 04       	cmpb	4,x
    9708:	24 11       	bcc	971b <.L45>

0000970a <.LM92>:
    970a:	e6 04       	ldab	4,x
    970c:	37          	pshb
    970d:	34          	des
    970e:	18 30       	tsy
    9710:	18 ee 04    	ldy	4,y
    9713:	18 e6 00    	ldab	0,y
    9716:	bd 8d 0b    	jsr	8d0b <presto_priority_override>
    9719:	31          	ins
    971a:	31          	ins

0000971b <.L45>:
    971b:	30          	tsx
    971c:	ee 02       	ldx	2,x
    971e:	ec 03       	ldd	3,x
    9720:	30          	tsx
    9721:	ed 02       	std	2,x
    9723:	8f          	xgdx
    9724:	8c 00 00    	cpx	#0 <_.tmp>
    9727:	26 d1       	bne	96fa <.L48>

00009729 <.L41>:
    9729:	38          	pulx
    972a:	38          	pulx
    972b:	31          	ins
    972c:	39          	rts

0000972d <presto_timer_start>:
    972d:	3c          	pshx
    972e:	34          	des
    972f:	30          	tsx
    9730:	ed 00       	std	0,x

00009732 <.LM2>:
    9732:	18 ce 00 06 	ldy	#6 <_.xy+0x2>
    9736:	18 3c       	pshy
    9738:	ce c6 f6    	ldx	#c6f6 <system_clock>
    973b:	3c          	pshx
    973c:	18 30       	tsy
    973e:	18 ec 04    	ldd	4,y
    9741:	bd 9f c0    	jsr	9fc0 <__memcpy>

00009744 <.LM3>:
    9744:	30          	tsx
    9745:	ee 09       	ldx	9,x
    9747:	3c          	pshx
    9748:	18 30       	tsy
    974a:	18 ec 06    	ldd	6,y
    974d:	bd 8a 7b    	jsr	8a7b <clock_add_ms>

00009750 <.LM4>:
    9750:	30          	tsx
    9751:	ec 0d       	ldd	13,x
    9753:	ee 06       	ldx	6,x
    9755:	ed 06       	std	6,x

00009757 <.LM5>:
    9757:	bd 8d e2    	jsr	8de2 <kernel_current_task>
    975a:	18 30       	tsy
    975c:	18 ee 06    	ldy	6,y
    975f:	18 e7 08    	stab	8,y

00009762 <.LM6>:
    9762:	30          	tsx
    9763:	e6 10       	ldab	16,x
    9765:	18 e7 09    	stab	9,y

00009768 <.LM7>:
    9768:	38          	pulx
    9769:	38          	pulx
    976a:	38          	pulx
    976b:	30          	tsx
    976c:	ee 05       	ldx	5,x
    976e:	26 29       	bne	9799 <.L2>

00009770 <.LM8>:
    9770:	bd 8d e2    	jsr	8de2 <kernel_current_task>
    9773:	18 30       	tsy
    9775:	18 e7 02    	stab	2,y
    9778:	18 e6 0a    	ldab	10,y
    977b:	37          	pshb
    977c:	34          	des
    977d:	18 30       	tsy
    977f:	18 e6 04    	ldab	4,y
    9782:	bd 8d cf    	jsr	8dcf <kernel_trigger_set_noswitch>

00009785 <.LM9>:
    9785:	31          	ins
    9786:	31          	ins
    9787:	30          	tsx
    9788:	ee 07       	ldx	7,x
    978a:	27 1b       	beq	97a7 <.L1>

0000978c <.LM10>:
    978c:	8f          	xgdx
    978d:	18 8f       	xgdy
    978f:	18 3c       	pshy
    9791:	30          	tsx
    9792:	ec 02       	ldd	2,x
    9794:	bd 8a 7b    	jsr	8a7b <clock_add_ms>
    9797:	31          	ins
    9798:	31          	ins

00009799 <.L2>:
    9799:	18 30       	tsy
    979b:	18 ec 00    	ldd	0,y
    979e:	bd 98 e0    	jsr	98e0 <timer_remove_from_master_list>

000097a1 <.LM12>:
    97a1:	30          	tsx
    97a2:	ec 00       	ldd	0,x
    97a4:	bd 98 90    	jsr	9890 <timer_insert_into_master_list>

000097a7 <.L1>:
    97a7:	38          	pulx
    97a8:	31          	ins
    97a9:	39          	rts

000097aa <presto_timer_wait>:
    97aa:	30          	tsx
    97ab:	8f          	xgdx
    97ac:	c3 ff f4    	addd	#fff4 <__normvect_start+0x1e>
    97af:	8f          	xgdx
    97b0:	35          	txs
    97b1:	8f          	xgdx

000097b2 <.LBB2>:
    97b2:	18 30       	tsy
    97b4:	18 e6 0f    	ldab	15,y
    97b7:	37          	pshb
    97b8:	34          	des
    97b9:	18 ce 00 00 	ldy	#0 <_.tmp>
    97bd:	18 3c       	pshy
    97bf:	3c          	pshx
    97c0:	ce 00 06    	ldx	#6 <_.xy+0x2>
    97c3:	8f          	xgdx
    97c4:	9f 00       	sts	*0 <_.tmp>
    97c6:	d3 00       	addd	*0 <_.tmp>
    97c8:	c3 00 01    	addd	#1 <_.tmp+0x1>
    97cb:	bd 97 2d    	jsr	972d <presto_timer_start>

000097ce <.LM16>:
    97ce:	18 30       	tsy
    97d0:	18 e6 15    	ldab	21,y
    97d3:	bd 8d 61    	jsr	8d61 <presto_wait>

000097d6 <.LBE2>:
    97d6:	30          	tsx
    97d7:	8f          	xgdx
    97d8:	c3 00 12    	addd	#12 <_.xy+0xe>
    97db:	8f          	xgdx
    97dc:	35          	txs
    97dd:	39          	rts

000097de <presto_timer_stop>:
    97de:	bd 98 e0    	jsr	98e0 <timer_remove_from_master_list>

000097e1 <.LM20>:
    97e1:	39          	rts

000097e2 <kernel_timer_init>:
    97e2:	39          	rts

000097e3 <kernel_master_clock_start>:
    97e3:	cc c6 f6    	ldd	#c6f6 <system_clock>
    97e6:	bd 8a 71    	jsr	8a71 <clock_reset>

000097e9 <.LM25>:
    97e9:	ce 97 fb    	ldx	#97fb <timer_isr>
    97ec:	3c          	pshx
    97ed:	c6 08       	ldab	#8
    97ef:	bd 8a 25    	jsr	8a25 <set_interrupt>

000097f2 <.LM26>:
    97f2:	cc 00 02    	ldd	#2 <_.z>
    97f5:	bd 89 2c    	jsr	892c <hwtimer_start>
    97f8:	31          	ins
    97f9:	31          	ins

000097fa <.LM27>:
    97fa:	39          	rts

000097fb <timer_isr>:
    97fb:	de 00       	ldx	*0 <_.tmp>
    97fd:	3c          	pshx
    97fe:	de 02       	ldx	*2 <_.z>
    9800:	3c          	pshx
    9801:	de 04       	ldx	*4 <_.xy>
    9803:	3c          	pshx
    9804:	3c          	pshx
    9805:	3c          	pshx
    9806:	34          	des

00009807 <.LM29>:
    9807:	30          	tsx
    9808:	6f 00       	clr	0,x

0000980a <.LM30>:
    980a:	ce 00 02    	ldx	#2 <_.z>
    980d:	3c          	pshx
    980e:	cc c6 f6    	ldd	#c6f6 <system_clock>
    9811:	bd 8a 7b    	jsr	8a7b <clock_add_ms>

00009814 <.LM31>:
    9814:	bd 89 68    	jsr	8968 <hwtimer_restart>

00009817 <.LM32>:
    9817:	bd 8d e2    	jsr	8de2 <kernel_current_task>
    981a:	bd 8c d2    	jsr	8cd2 <presto_priority_get>
    981d:	30          	tsx
    981e:	e7 05       	stab	5,x

00009820 <.LM33>:
    9820:	31          	ins
    9821:	31          	ins
    9822:	20 44       	bra	9868 <.L10>

00009824 <.L16>:
    9824:	fc c1 3e    	ldd	c13e <timer_list>
    9827:	30          	tsx
    9828:	ed 01       	std	1,x

0000982a <.LM35>:
    982a:	8f          	xgdx
    982b:	ec 0a       	ldd	10,x
    982d:	fd c1 3e    	std	c13e <timer_list>

00009830 <.LM36>:
    9830:	e6 08       	ldab	8,x
    9832:	30          	tsx
    9833:	e7 04       	stab	4,x
    9835:	ee 01       	ldx	1,x
    9837:	e6 09       	ldab	9,x
    9839:	37          	pshb
    983a:	34          	des
    983b:	30          	tsx
    983c:	e6 06       	ldab	6,x
    983e:	bd 8d cf    	jsr	8dcf <kernel_trigger_set_noswitch>

00009841 <.LM37>:
    9841:	31          	ins
    9842:	31          	ins
    9843:	30          	tsx
    9844:	ee 01       	ldx	1,x
    9846:	ec 06       	ldd	6,x
    9848:	27 0f       	beq	9859 <.L14>

0000984a <.LM38>:
    984a:	8f          	xgdx
    984b:	3c          	pshx
    984c:	30          	tsx
    984d:	ec 03       	ldd	3,x
    984f:	bd 8a 7b    	jsr	8a7b <clock_add_ms>

00009852 <.LM39>:
    9852:	30          	tsx
    9853:	ec 03       	ldd	3,x
    9855:	8d 39       	bsr	9890 <timer_insert_into_master_list>
    9857:	31          	ins
    9858:	31          	ins

00009859 <.L14>:
    9859:	30          	tsx
    985a:	ee 01       	ldx	1,x
    985c:	e6 08       	ldab	8,x
    985e:	bd 8c d2    	jsr	8cd2 <presto_priority_get>
    9861:	30          	tsx
    9862:	e1 03       	cmpb	3,x
    9864:	23 02       	bls	9868 <.L10>
    9866:	6c 00       	inc	0,x

00009868 <.L10>:
    9868:	fc c1 3e    	ldd	c13e <timer_list>
    986b:	27 0e       	beq	987b <.L11>
    986d:	ce c6 f6    	ldx	#c6f6 <system_clock>
    9870:	3c          	pshx
    9871:	bd 8a b5    	jsr	8ab5 <clock_compare>
    9874:	31          	ins
    9875:	31          	ins
    9876:	5d          	tstb
    9877:	2b ab       	bmi	9824 <.L16>
    9879:	27 a9       	beq	9824 <.L16>

0000987b <.L11>:
    987b:	30          	tsx
    987c:	6d 00       	tst	0,x
    987e:	27 03       	beq	9883 <.L17>

00009880 <.LM42>:
    9880:	bd 8d e9    	jsr	8de9 <kernel_context_switch>

00009883 <.L17>:
    9883:	38          	pulx
    9884:	38          	pulx
    9885:	31          	ins
    9886:	38          	pulx
    9887:	df 04       	stx	*4 <_.xy>
    9889:	38          	pulx
    988a:	df 02       	stx	*2 <_.z>
    988c:	38          	pulx
    988d:	df 00       	stx	*0 <_.tmp>
    988f:	3b          	rti

00009890 <timer_insert_into_master_list>:
    9890:	3c          	pshx
    9891:	3c          	pshx
    9892:	3c          	pshx
    9893:	3c          	pshx
    9894:	30          	tsx
    9895:	ed 00       	std	0,x

00009897 <.LBB4>:
    9897:	07          	tpa
    9898:	0f          	sei
    9899:	ed 02       	std	2,x

0000989b <.LM46>:
    989b:	cc c1 3e    	ldd	#c13e <timer_list>
    989e:	ed 04       	std	4,x

000098a0 <.LM47>:
    98a0:	fc c1 3e    	ldd	c13e <timer_list>

000098a3 <.L25>:
    98a3:	ed 06       	std	6,x

000098a5 <.LM48>:
    98a5:	30          	tsx
    98a6:	ee 06       	ldx	6,x
    98a8:	27 11       	beq	98bb <.L23>
    98aa:	30          	tsx
    98ab:	ee 00       	ldx	0,x
    98ad:	3c          	pshx
    98ae:	30          	tsx
    98af:	ec 08       	ldd	8,x
    98b1:	bd 8a b5    	jsr	8ab5 <clock_compare>
    98b4:	31          	ins
    98b5:	31          	ins
    98b6:	5d          	tstb
    98b7:	2b 19       	bmi	98d2 <.L22>
    98b9:	27 17       	beq	98d2 <.L22>

000098bb <.L23>:
    98bb:	30          	tsx
    98bc:	ec 06       	ldd	6,x
    98be:	ee 00       	ldx	0,x
    98c0:	ed 0a       	std	10,x

000098c2 <.LM50>:
    98c2:	30          	tsx
    98c3:	ec 00       	ldd	0,x
    98c5:	ee 04       	ldx	4,x
    98c7:	ed 00       	std	0,x

000098c9 <.LM51>:
    98c9:	30          	tsx
    98ca:	ec 02       	ldd	2,x
    98cc:	06          	tap

000098cd <.LM53>:
    98cd:	38          	pulx
    98ce:	38          	pulx
    98cf:	38          	pulx
    98d0:	38          	pulx
    98d1:	39          	rts

000098d2 <.L22>:
    98d2:	30          	tsx
    98d3:	ec 06       	ldd	6,x
    98d5:	c3 00 0a    	addd	#a <_.xy+0x6>
    98d8:	ed 04       	std	4,x

000098da <.LM55>:
    98da:	8f          	xgdx
    98db:	ec 00       	ldd	0,x
    98dd:	30          	tsx
    98de:	20 c3       	bra	98a3 <.L25>

000098e0 <timer_remove_from_master_list>:
    98e0:	3c          	pshx
    98e1:	dd 02       	std	*2 <_.z>

000098e3 <.LBB5>:
    98e3:	07          	tpa
    98e4:	0f          	sei
    98e5:	18 30       	tsy
    98e7:	18 ed 00    	std	0,y

000098ea <.LM58>:
    98ea:	20 0a       	bra	98f6 <.L39>

000098ec <.L30>:
    98ec:	fe c1 3e    	ldx	c13e <timer_list>
    98ef:	1a ee 0a    	ldy	10,x
    98f2:	18 ff c1 3e 	sty	c13e <timer_list>

000098f6 <.L39>:
    98f6:	dc 02       	ldd	*2 <_.z>
    98f8:	1a b3 c1 3e 	cpd	c13e <timer_list>
    98fc:	27 ee       	beq	98ec <.L30>

000098fe <.LM60>:
    98fe:	fe c1 3e    	ldx	c13e <timer_list>

00009901 <.L40>:
    9901:	8c 00 00    	cpx	#0 <_.tmp>
    9904:	27 19       	beq	991f <.L38>

00009906 <.LM62>:
    9906:	dc 02       	ldd	*2 <_.z>
    9908:	1a a3 0a    	cpd	10,x
    990b:	26 0e       	bne	991b <.L34>
    990d:	df 04       	stx	*4 <_.xy>
    990f:	de 02       	ldx	*2 <_.z>
    9911:	1a ee 0a    	ldy	10,x
    9914:	de 04       	ldx	*4 <_.xy>
    9916:	1a ef 0a    	sty	10,x
    9919:	20 e6       	bra	9901 <.L40>

0000991b <.L34>:
    991b:	ee 0a       	ldx	10,x
    991d:	20 e2       	bra	9901 <.L40>

0000991f <.L38>:
    991f:	18 30       	tsy
    9921:	18 ec 00    	ldd	0,y
    9924:	06          	tap

00009925 <.LM65>:
    9925:	38          	pulx
    9926:	39          	rts

00009927 <serial_init>:
    9927:	34          	des
    9928:	30          	tsx
    9929:	e7 00       	stab	0,x

0000992b <.LM2>:
    992b:	ce 10 2c    	ldx	#102c <_.frame+0xfe6>
    992e:	5f          	clrb
    992f:	e7 00       	stab	0,x

00009931 <.LM3>:
    9931:	ce 10 2b    	ldx	#102b <_.frame+0xfe5>
    9934:	c6 30       	ldab	#48
    9936:	e7 00       	stab	0,x

00009938 <.LM4>:
    9938:	8d 24       	bsr	995e <clear_buffers>

0000993a <.LM5>:
    993a:	30          	tsx
    993b:	e6 00       	ldab	0,x
    993d:	f7 c8 1e    	stab	c81e <serialuser_tid>

00009940 <.LM6>:
    9940:	e6 04       	ldab	4,x
    9942:	f7 c8 1f    	stab	c81f <serialuser_tx_trigger>

00009945 <.LM7>:
    9945:	e6 06       	ldab	6,x
    9947:	f7 c8 20    	stab	c820 <serialuser_rx_trigger>

0000994a <.LM8>:
    994a:	ce 9a 39    	ldx	#9a39 <serial_isr>
    994d:	3c          	pshx
    994e:	c6 00       	ldab	#0
    9950:	bd 8a 25    	jsr	8a25 <set_interrupt>

00009953 <.LM9>:
    9953:	ce 10 2d    	ldx	#102d <_.frame+0xfe7>
    9956:	c6 ac       	ldab	#172
    9958:	e7 00       	stab	0,x
    995a:	31          	ins
    995b:	31          	ins

0000995c <.LM10>:
    995c:	31          	ins
    995d:	39          	rts

0000995e <clear_buffers>:
    995e:	ce 00 10    	ldx	#10 <_.xy+0xc>
    9961:	3c          	pshx
    9962:	18 ce c7 14 	ldy	#c714 <com1_rx_buffer>
    9966:	18 3c       	pshy
    9968:	cc c6 fc    	ldd	#c6fc <com1_rx_queue>
    996b:	bd 9a ff    	jsr	9aff <cq_init>

0000996e <.LM13>:
    996e:	ce 00 fa    	ldx	#fa <_.frame+0xb4>
    9971:	3c          	pshx
    9972:	18 ce c7 24 	ldy	#c724 <com1_tx_buffer>
    9976:	18 3c       	pshy
    9978:	cc c7 08    	ldd	#c708 <com1_tx_queue>
    997b:	bd 9a ff    	jsr	9aff <cq_init>
    997e:	38          	pulx
    997f:	38          	pulx
    9980:	38          	pulx
    9981:	38          	pulx

00009982 <.LM14>:
    9982:	39          	rts

00009983 <queue_up_or_block>:
    9983:	34          	des
    9984:	30          	tsx
    9985:	e7 00       	stab	0,x

00009987 <.L4>:
    9987:	30          	tsx
    9988:	e6 00       	ldab	0,x
    998a:	37          	pshb
    998b:	34          	des
    998c:	cc c7 08    	ldd	#c708 <com1_tx_queue>
    998f:	bd 9b 78    	jsr	9b78 <cq_put_byte>

00009992 <.LM17>:
    9992:	31          	ins
    9993:	31          	ins
    9994:	dd 00       	std	*0 <_.tmp>
    9996:	26 14       	bne	99ac <.L9>

00009998 <.LM18>:
    9998:	ce 10 2d    	ldx	#102d <_.frame+0xfe7>
    999b:	1c 00 80    	bset	0,x #$80

0000999e <.LM19>:
    999e:	f6 c8 1f    	ldab	c81f <serialuser_tx_trigger>
    99a1:	bd 8d a4    	jsr	8da4 <presto_trigger_clear>

000099a4 <.LM20>:
    99a4:	f6 c8 1f    	ldab	c81f <serialuser_tx_trigger>
    99a7:	bd 8d 61    	jsr	8d61 <presto_wait>

000099aa <.LM21>:
    99aa:	20 db       	bra	9987 <.L4>

000099ac <.L9>:
    99ac:	31          	ins
    99ad:	39          	rts

000099ae <serial_send_byte>:
    99ae:	8d d3       	bsr	9983 <queue_up_or_block>

000099b0 <.LM25>:
    99b0:	ce 10 2d    	ldx	#102d <_.frame+0xfe7>
    99b3:	1c 00 80    	bset	0,x #$80

000099b6 <.LM26>:
    99b6:	39          	rts

000099b7 <serial_send_string>:
    99b7:	3c          	pshx
    99b8:	30          	tsx
    99b9:	ed 00       	std	0,x

000099bb <.LM28>:
    99bb:	18 8f       	xgdy
    99bd:	18 e6 00    	ldab	0,y
    99c0:	27 14       	beq	99d6 <.L16>

000099c2 <.L15>:
    99c2:	30          	tsx
    99c3:	ee 00       	ldx	0,x
    99c5:	e6 00       	ldab	0,x
    99c7:	8d ba       	bsr	9983 <queue_up_or_block>

000099c9 <.LM30>:
    99c9:	18 30       	tsy
    99cb:	cd ee 00    	ldx	0,y
    99ce:	08          	inx
    99cf:	cd ef 00    	stx	0,y
    99d2:	6d 00       	tst	0,x
    99d4:	26 ec       	bne	99c2 <.L15>

000099d6 <.L16>:
    99d6:	ce 10 2d    	ldx	#102d <_.frame+0xfe7>
    99d9:	1c 00 80    	bset	0,x #$80

000099dc <.LM32>:
    99dc:	38          	pulx
    99dd:	39          	rts

000099de <serial_recv>:
    99de:	8f          	xgdx

000099df <.LBB3>:
    99df:	3c          	pshx
    99e0:	cc c6 fc    	ldd	#c6fc <com1_rx_queue>
    99e3:	bd 9b 2b    	jsr	9b2b <cq_get_byte>

000099e6 <.LM35>:
    99e6:	ce 10 2d    	ldx	#102d <_.frame+0xfe7>
    99e9:	1c 00 20    	bset	0,x #$20

000099ec <.LM36>:
    99ec:	31          	ins
    99ed:	31          	ins

000099ee <.LBE3>:
    99ee:	39          	rts

000099ef <serial_recv_string>:
    99ef:	3c          	pshx
    99f0:	3c          	pshx
    99f1:	18 8f       	xgdy

000099f3 <.LBB4>:
    99f3:	30          	tsx
    99f4:	6f 01       	clr	1,x
    99f6:	6f 00       	clr	0,x

000099f8 <.LM40>:
    99f8:	1a ef 02    	sty	2,x

000099fb <.LM41>:
    99fb:	20 09       	bra	9a06 <.L19>

000099fd <.L23>:
    99fd:	18 30       	tsy
    99ff:	cd ee 00    	ldx	0,y
    9a02:	08          	inx
    9a03:	cd ef 00    	stx	0,y

00009a06 <.L19>:
    9a06:	18 30       	tsy
    9a08:	18 ee 02    	ldy	2,y
    9a0b:	18 3c       	pshy
    9a0d:	30          	tsx
    9a0e:	1a ee 04    	ldy	4,x
    9a11:	18 08       	iny
    9a13:	1a ef 04    	sty	4,x
    9a16:	cc c6 fc    	ldd	#c6fc <com1_rx_queue>
    9a19:	bd 9b 2b    	jsr	9b2b <cq_get_byte>
    9a1c:	31          	ins
    9a1d:	31          	ins
    9a1e:	dd 00       	std	*0 <_.tmp>
    9a20:	27 09       	beq	9a2b <.L20>
    9a22:	30          	tsx
    9a23:	4f          	clra
    9a24:	e6 07       	ldab	7,x
    9a26:	1a a3 00    	cpd	0,x
    9a29:	2e d2       	bgt	99fd <.L23>

00009a2b <.L20>:
    9a2b:	ce 10 2d    	ldx	#102d <_.frame+0xfe7>
    9a2e:	1c 00 20    	bset	0,x #$20

00009a31 <.LM43>:
    9a31:	18 30       	tsy
    9a33:	18 ec 00    	ldd	0,y

00009a36 <.LBE4>:
    9a36:	38          	pulx
    9a37:	38          	pulx
    9a38:	39          	rts

00009a39 <serial_isr>:
    9a39:	de 46       	ldx	*46 <_.frame>
    9a3b:	3c          	pshx
    9a3c:	de 00       	ldx	*0 <_.tmp>
    9a3e:	3c          	pshx
    9a3f:	de 02       	ldx	*2 <_.z>
    9a41:	3c          	pshx
    9a42:	de 04       	ldx	*4 <_.xy>
    9a44:	3c          	pshx
    9a45:	3c          	pshx
    9a46:	3c          	pshx
    9a47:	34          	des
    9a48:	9f 46       	sts	*46 <_.frame>

00009a4a <.LM46>:
    9a4a:	de 46       	ldx	*46 <_.frame>
    9a4c:	6f 05       	clr	5,x
    9a4e:	6f 04       	clr	4,x

00009a50 <.LM47>:
    9a50:	4f          	clra
    9a51:	5f          	clrb
    9a52:	ed 02       	std	2,x

00009a54 <.LM48>:
    9a54:	20 33       	bra	9a89 <.L25>

00009a56 <.L30>:
    9a56:	18 ce 00 01 	ldy	#1 <_.tmp+0x1>
    9a5a:	18 8f       	xgdy
    9a5c:	d3 46       	addd	*46 <_.frame>
    9a5e:	18 8f       	xgdy
    9a60:	18 3c       	pshy
    9a62:	cc c7 08    	ldd	#c708 <com1_tx_queue>
    9a65:	bd 9b 2b    	jsr	9b2b <cq_get_byte>
    9a68:	31          	ins
    9a69:	31          	ins
    9a6a:	dd 00       	std	*0 <_.tmp>
    9a6c:	27 13       	beq	9a81 <.L28>

00009a6e <.LM50>:
    9a6e:	ce 10 2f    	ldx	#102f <_.frame+0xfe9>
    9a71:	18 de 46    	ldy	*46 <_.frame>
    9a74:	18 e6 01    	ldab	1,y
    9a77:	e7 00       	stab	0,x

00009a79 <.LM51>:
    9a79:	ce 00 01    	ldx	#1 <_.tmp+0x1>
    9a7c:	cd ef 02    	stx	2,y
    9a7f:	20 08       	bra	9a89 <.L25>

00009a81 <.L28>:
    9a81:	ce 10 2d    	ldx	#102d <_.frame+0xfe7>
    9a84:	1d 00 80    	bclr	0,x #$80

00009a87 <.LM53>:
    9a87:	20 09       	bra	9a92 <.L26>

00009a89 <.L25>:
    9a89:	ce 10 2e    	ldx	#102e <_.frame+0xfe8>
    9a8c:	e6 00       	ldab	0,x
    9a8e:	c4 80       	andb	#128
    9a90:	26 c4       	bne	9a56 <.L30>

00009a92 <.L26>:
    9a92:	ce 10 2e    	ldx	#102e <_.frame+0xfe8>
    9a95:	e6 00       	ldab	0,x
    9a97:	c4 20       	andb	#32
    9a99:	27 21       	beq	9abc <.L37>
    9a9b:	ce 00 01    	ldx	#1 <_.tmp+0x1>
    9a9e:	18 de 46    	ldy	*46 <_.frame>
    9aa1:	cd ef 04    	stx	4,y

00009aa4 <.L34>:
    9aa4:	ce 10 2f    	ldx	#102f <_.frame+0xfe9>
    9aa7:	e6 00       	ldab	0,x
    9aa9:	37          	pshb
    9aaa:	34          	des
    9aab:	cc c6 fc    	ldd	#c6fc <com1_rx_queue>
    9aae:	bd 9b 78    	jsr	9b78 <cq_put_byte>

00009ab1 <.LM56>:
    9ab1:	31          	ins
    9ab2:	31          	ins
    9ab3:	ce 10 2e    	ldx	#102e <_.frame+0xfe8>
    9ab6:	e6 00       	ldab	0,x
    9ab8:	c4 20       	andb	#32
    9aba:	26 e8       	bne	9aa4 <.L34>

00009abc <.L37>:
    9abc:	18 de 46    	ldy	*46 <_.frame>
    9abf:	18 ec 02    	ldd	2,y
    9ac2:	27 18       	beq	9adc <.L35>
    9ac4:	cc c7 08    	ldd	#c708 <com1_tx_queue>
    9ac7:	8d 5e       	bsr	9b27 <cq_used>
    9ac9:	1a 83 00 0f 	cpd	#f <_.xy+0xb>
    9acd:	22 0d       	bhi	9adc <.L35>

00009acf <.LM58>:
    9acf:	f6 c8 1f    	ldab	c81f <serialuser_tx_trigger>
    9ad2:	37          	pshb
    9ad3:	34          	des
    9ad4:	f6 c8 1e    	ldab	c81e <serialuser_tid>
    9ad7:	bd 8d b4    	jsr	8db4 <presto_trigger_send>
    9ada:	31          	ins
    9adb:	31          	ins

00009adc <.L35>:
    9adc:	de 46       	ldx	*46 <_.frame>
    9ade:	ee 04       	ldx	4,x
    9ae0:	27 0d       	beq	9aef <.L36>

00009ae2 <.LM60>:
    9ae2:	f6 c8 20    	ldab	c820 <serialuser_rx_trigger>
    9ae5:	37          	pshb
    9ae6:	34          	des
    9ae7:	f6 c8 1e    	ldab	c81e <serialuser_tid>
    9aea:	bd 8d b4    	jsr	8db4 <presto_trigger_send>
    9aed:	31          	ins
    9aee:	31          	ins

00009aef <.L36>:
    9aef:	38          	pulx
    9af0:	38          	pulx
    9af1:	31          	ins
    9af2:	38          	pulx
    9af3:	df 04       	stx	*4 <_.xy>
    9af5:	38          	pulx
    9af6:	df 02       	stx	*2 <_.z>
    9af8:	38          	pulx
    9af9:	df 00       	stx	*0 <_.tmp>
    9afb:	38          	pulx
    9afc:	df 46       	stx	*46 <_.frame>
    9afe:	3b          	rti

00009aff <cq_init>:
    9aff:	8f          	xgdx

00009b00 <.LM63>:
    9b00:	18 30       	tsy
    9b02:	18 ee 02    	ldy	2,y
    9b05:	1a ef 00    	sty	0,x

00009b08 <.LM64>:
    9b08:	18 30       	tsy
    9b0a:	18 ec 02    	ldd	2,y
    9b0d:	18 e3 04    	addd	4,y
    9b10:	c3 ff ff    	addd	#ffff <__normvect_start+0x29>
    9b13:	ed 02       	std	2,x

00009b15 <.LM65>:
    9b15:	18 ec 02    	ldd	2,y
    9b18:	ed 04       	std	4,x

00009b1a <.LM66>:
    9b1a:	ed 06       	std	6,x

00009b1c <.LM67>:
    9b1c:	18 ee 04    	ldy	4,y
    9b1f:	1a ef 08    	sty	8,x

00009b22 <.LM68>:
    9b22:	6f 0b       	clr	11,x
    9b24:	6f 0a       	clr	10,x

00009b26 <.LM69>:
    9b26:	39          	rts

00009b27 <cq_used>:
    9b27:	8f          	xgdx

00009b28 <.LM71>:
    9b28:	ec 0a       	ldd	10,x

00009b2a <.LM72>:
    9b2a:	39          	rts

00009b2b <cq_get_byte>:
    9b2b:	3c          	pshx
    9b2c:	18 8f       	xgdy
    9b2e:	30          	tsx
    9b2f:	18 df 04    	sty	*4 <_.xy>
    9b32:	1a ee 04    	ldy	4,x

00009b35 <.LBB6>:
    9b35:	18 df 02    	sty	*2 <_.z>
    9b38:	18 de 04    	ldy	*4 <_.xy>
    9b3b:	18 ec 0a    	ldd	10,y
    9b3e:	26 04       	bne	9b44 <.L41>
    9b40:	4f          	clra
    9b41:	5f          	clrb
    9b42:	20 32       	bra	9b76 <.L40>

00009b44 <.L41>:
    9b44:	07          	tpa
    9b45:	0f          	sei
    9b46:	30          	tsx
    9b47:	ed 00       	std	0,x

00009b49 <.LM76>:
    9b49:	cd ee 06    	ldx	6,y
    9b4c:	e6 00       	ldab	0,x
    9b4e:	de 02       	ldx	*2 <_.z>
    9b50:	e7 00       	stab	0,x

00009b52 <.LM77>:
    9b52:	18 ec 06    	ldd	6,y
    9b55:	c3 00 01    	addd	#1 <_.tmp+0x1>
    9b58:	18 ed 06    	std	6,y

00009b5b <.LM78>:
    9b5b:	cd a3 02    	cpd	2,y
    9b5e:	23 06       	bls	9b66 <.L42>

00009b60 <.LM79>:
    9b60:	cd ee 00    	ldx	0,y
    9b63:	cd ef 06    	stx	6,y

00009b66 <.L42>:
    9b66:	18 ec 0a    	ldd	10,y
    9b69:	c3 ff ff    	addd	#ffff <__normvect_start+0x29>
    9b6c:	18 ed 0a    	std	10,y

00009b6f <.LM81>:
    9b6f:	30          	tsx
    9b70:	ec 00       	ldd	0,x
    9b72:	06          	tap

00009b73 <.LM82>:
    9b73:	cc 00 01    	ldd	#1 <_.tmp+0x1>

00009b76 <.L40>:
    9b76:	38          	pulx
    9b77:	39          	rts

00009b78 <cq_put_byte>:
    9b78:	3c          	pshx
    9b79:	18 8f       	xgdy

00009b7b <.LBB7>:
    9b7b:	18 ec 0a    	ldd	10,y
    9b7e:	cd a3 08    	cpd	8,y
    9b81:	25 04       	bcs	9b87 <.L44>
    9b83:	4f          	clra
    9b84:	5f          	clrb
    9b85:	20 3c       	bra	9bc3 <.L43>

00009b87 <.L44>:
    9b87:	07          	tpa
    9b88:	0f          	sei
    9b89:	30          	tsx
    9b8a:	ed 00       	std	0,x

00009b8c <.LM87>:
    9b8c:	df 02       	stx	*2 <_.z>
    9b8e:	cd ee 04    	ldx	4,y
    9b91:	df 04       	stx	*4 <_.xy>
    9b93:	de 02       	ldx	*2 <_.z>
    9b95:	e6 05       	ldab	5,x
    9b97:	de 04       	ldx	*4 <_.xy>
    9b99:	e7 00       	stab	0,x

00009b9b <.LM88>:
    9b9b:	18 ec 04    	ldd	4,y
    9b9e:	c3 00 01    	addd	#1 <_.tmp+0x1>
    9ba1:	18 ed 04    	std	4,y

00009ba4 <.LM89>:
    9ba4:	cd a3 02    	cpd	2,y
    9ba7:	23 06       	bls	9baf <.L45>

00009ba9 <.LM90>:
    9ba9:	18 ec 00    	ldd	0,y
    9bac:	18 ed 04    	std	4,y

00009baf <.L45>:
    9baf:	18 ec 0a    	ldd	10,y
    9bb2:	c3 00 01    	addd	#1 <_.tmp+0x1>
    9bb5:	18 ed 0a    	std	10,y

00009bb8 <.LM92>:
    9bb8:	df 04       	stx	*4 <_.xy>
    9bba:	30          	tsx
    9bbb:	ec 00       	ldd	0,x
    9bbd:	de 04       	ldx	*4 <_.xy>
    9bbf:	06          	tap

00009bc0 <.LM93>:
    9bc0:	cc 00 01    	ldd	#1 <_.tmp+0x1>

00009bc3 <.L43>:
    9bc3:	38          	pulx
    9bc4:	39          	rts

00009bc5 <string_IsSpace>:
    9bc5:	c1 20       	cmpb	#32
    9bc7:	26 04       	bne	9bcd <.L2>
    9bc9:	cc 00 01    	ldd	#1 <_.tmp+0x1>

00009bcc <.LM3>:
    9bcc:	39          	rts

00009bcd <.L2>:
    9bcd:	4f          	clra
    9bce:	5f          	clrb

00009bcf <.LM5>:
    9bcf:	39          	rts

00009bd0 <string_IsNumber>:
    9bd0:	34          	des
    9bd1:	30          	tsx
    9bd2:	e7 00       	stab	0,x

00009bd4 <.LM7>:
    9bd4:	cb d0       	addb	#208
    9bd6:	c1 09       	cmpb	#9
    9bd8:	23 0a       	bls	9be4 <.L6>

00009bda <.LM8>:
    9bda:	e6 00       	ldab	0,x
    9bdc:	c1 2d       	cmpb	#45
    9bde:	27 04       	beq	9be4 <.L6>
    9be0:	c1 2b       	cmpb	#43
    9be2:	26 05       	bne	9be9 <.L5>

00009be4 <.L6>:
    9be4:	cc 00 01    	ldd	#1 <_.tmp+0x1>
    9be7:	20 02       	bra	9beb <.L3>

00009be9 <.L5>:
    9be9:	4f          	clra
    9bea:	5f          	clrb

00009beb <.L3>:
    9beb:	31          	ins
    9bec:	39          	rts

00009bed <string_IsDigit>:
    9bed:	cb d0       	addb	#208
    9bef:	c1 09       	cmpb	#9
    9bf1:	22 04       	bhi	9bf7 <.L8>
    9bf3:	cc 00 01    	ldd	#1 <_.tmp+0x1>

00009bf6 <.LM13>:
    9bf6:	39          	rts

00009bf7 <.L8>:
    9bf7:	4f          	clra
    9bf8:	5f          	clrb

00009bf9 <.LM15>:
    9bf9:	39          	rts

00009bfa <string_IsHexDigit>:
    9bfa:	34          	des
    9bfb:	30          	tsx
    9bfc:	e7 00       	stab	0,x

00009bfe <.LM17>:
    9bfe:	cb d0       	addb	#208
    9c00:	c1 09       	cmpb	#9
    9c02:	23 10       	bls	9c14 <.L13>

00009c04 <.LM18>:
    9c04:	e6 00       	ldab	0,x
    9c06:	cb bf       	addb	#191
    9c08:	c1 05       	cmpb	#5
    9c0a:	23 08       	bls	9c14 <.L13>

00009c0c <.LM19>:
    9c0c:	e6 00       	ldab	0,x
    9c0e:	cb 9f       	addb	#159
    9c10:	c1 05       	cmpb	#5
    9c12:	22 05       	bhi	9c19 <.L12>

00009c14 <.L13>:
    9c14:	cc 00 01    	ldd	#1 <_.tmp+0x1>
    9c17:	20 02       	bra	9c1b <.L9>

00009c19 <.L12>:
    9c19:	4f          	clra
    9c1a:	5f          	clrb

00009c1b <.L9>:
    9c1b:	31          	ins
    9c1c:	39          	rts

00009c1d <string_DigitToInteger>:
    9c1d:	cb d0       	addb	#208
    9c1f:	c1 09       	cmpb	#9
    9c21:	22 02       	bhi	9c25 <.L15>
    9c23:	4f          	clra

00009c24 <.LM24>:
    9c24:	39          	rts

00009c25 <.L15>:
    9c25:	4f          	clra
    9c26:	5f          	clrb

00009c27 <.LM26>:
    9c27:	39          	rts

00009c28 <string_StringToInteger>:
    9c28:	3c          	pshx
    9c29:	3c          	pshx
    9c2a:	3c          	pshx
    9c2b:	18 8f       	xgdy

00009c2d <.LBB2>:
    9c2d:	30          	tsx
    9c2e:	6f 00       	clr	0,x
    9c30:	18 e6 00    	ldab	0,y
    9c33:	c1 20       	cmpb	#32
    9c35:	26 19       	bne	9c50 <.L31>

00009c37 <.L19>:
    9c37:	30          	tsx
    9c38:	6c 00       	inc	0,x
    9c3a:	df 02       	stx	*2 <_.z>
    9c3c:	18 df 00    	sty	*0 <_.tmp>
    9c3f:	de 00       	ldx	*0 <_.tmp>
    9c41:	df 04       	stx	*4 <_.xy>
    9c43:	de 02       	ldx	*2 <_.z>
    9c45:	e6 00       	ldab	0,x
    9c47:	de 04       	ldx	*4 <_.xy>
    9c49:	3a          	abx
    9c4a:	e6 00       	ldab	0,x
    9c4c:	c1 20       	cmpb	#32
    9c4e:	27 e7       	beq	9c37 <.L19>

00009c50 <.L31>:
    9c50:	18 df 00    	sty	*0 <_.tmp>
    9c53:	de 00       	ldx	*0 <_.tmp>
    9c55:	18 df 04    	sty	*4 <_.xy>
    9c58:	18 30       	tsy
    9c5a:	18 e6 00    	ldab	0,y
    9c5d:	3a          	abx
    9c5e:	e6 00       	ldab	0,x
    9c60:	18 df 02    	sty	*2 <_.z>
    9c63:	18 de 04    	ldy	*4 <_.xy>
    9c66:	c1 2d       	cmpb	#45
    9c68:	26 04       	bne	9c6e <.L22>

00009c6a <.LM30>:
    9c6a:	c6 ff       	ldab	#255
    9c6c:	20 0b       	bra	9c79 <.L33>

00009c6e <.L22>:
    9c6e:	c6 01       	ldab	#1
    9c70:	dd 04       	std	*4 <_.xy>
    9c72:	8f          	xgdx
    9c73:	30          	tsx
    9c74:	8f          	xgdx
    9c75:	dd 02       	std	*2 <_.z>
    9c77:	dc 04       	ldd	*4 <_.xy>

00009c79 <.L33>:
    9c79:	df 04       	stx	*4 <_.xy>
    9c7b:	de 02       	ldx	*2 <_.z>
    9c7d:	e7 03       	stab	3,x
    9c7f:	de 04       	ldx	*4 <_.xy>

00009c81 <.LM32>:
    9c81:	30          	tsx
    9c82:	18 df 00    	sty	*0 <_.tmp>
    9c85:	dc 00       	ldd	*0 <_.tmp>
    9c87:	eb 00       	addb	0,x
    9c89:	89 00       	adca	#0
    9c8b:	ed 04       	std	4,x
    9c8d:	de 04       	ldx	*4 <_.xy>
    9c8f:	dd 02       	std	*2 <_.z>
    9c91:	de 02       	ldx	*2 <_.z>
    9c93:	e6 00       	ldab	0,x
    9c95:	de 04       	ldx	*4 <_.xy>
    9c97:	c1 2d       	cmpb	#45
    9c99:	27 04       	beq	9c9f <.L25>
    9c9b:	c1 2b       	cmpb	#43
    9c9d:	26 03       	bne	9ca2 <.L24>

00009c9f <.L25>:
    9c9f:	30          	tsx
    9ca0:	6c 00       	inc	0,x

00009ca2 <.L24>:
    9ca2:	ce 00 00    	ldx	#0 <_.tmp>
    9ca5:	df 04       	stx	*4 <_.xy>
    9ca7:	30          	tsx
    9ca8:	4f          	clra
    9ca9:	e6 00       	ldab	0,x
    9cab:	ed 01       	std	1,x
    9cad:	de 04       	ldx	*4 <_.xy>
    9caf:	18 df 00    	sty	*0 <_.tmp>
    9cb2:	d3 00       	addd	*0 <_.tmp>
    9cb4:	20 40       	bra	9cf6 <.L34>

00009cb6 <.L30>:
    9cb6:	3c          	pshx
    9cb7:	32          	pula
    9cb8:	33          	pulb
    9cb9:	05          	asld
    9cba:	05          	asld
    9cbb:	df 00       	stx	*0 <_.tmp>
    9cbd:	d3 00       	addd	*0 <_.tmp>
    9cbf:	05          	asld
    9cc0:	18 df 00    	sty	*0 <_.tmp>
    9cc3:	de 00       	ldx	*0 <_.tmp>
    9cc5:	18 df 04    	sty	*4 <_.xy>
    9cc8:	18 30       	tsy
    9cca:	8f          	xgdx
    9ccb:	18 e3 01    	addd	1,y
    9cce:	8f          	xgdx
    9ccf:	eb 00       	addb	0,x
    9cd1:	89 00       	adca	#0
    9cd3:	c3 ff d0    	addd	#ffd0 <__heap_end+0x3491>
    9cd6:	8f          	xgdx

00009cd7 <.LM36>:
    9cd7:	18 6c 00    	inc	0,y
    9cda:	18 e6 00    	ldab	0,y
    9cdd:	18 6f 01    	clr	1,y
    9ce0:	18 e7 02    	stab	2,y
    9ce3:	18 df 02    	sty	*2 <_.z>
    9ce6:	18 de 04    	ldy	*4 <_.xy>
    9ce9:	18 df 00    	sty	*0 <_.tmp>
    9cec:	dc 00       	ldd	*0 <_.tmp>
    9cee:	df 04       	stx	*4 <_.xy>
    9cf0:	de 02       	ldx	*2 <_.z>
    9cf2:	e3 01       	addd	1,x
    9cf4:	de 04       	ldx	*4 <_.xy>

00009cf6 <.L34>:
    9cf6:	dd 02       	std	*2 <_.z>
    9cf8:	df 04       	stx	*4 <_.xy>
    9cfa:	de 02       	ldx	*2 <_.z>
    9cfc:	e6 00       	ldab	0,x
    9cfe:	de 04       	ldx	*4 <_.xy>
    9d00:	cb d0       	addb	#208
    9d02:	c1 09       	cmpb	#9
    9d04:	23 b0       	bls	9cb6 <.L30>

00009d06 <.LM37>:
    9d06:	18 30       	tsy
    9d08:	18 e6 03    	ldab	3,y
    9d0b:	18 8f       	xgdy
    9d0d:	18 8f       	xgdy
    9d0f:	4f          	clra
    9d10:	5d          	tstb
    9d11:	2a 01       	bpl	9d14 <.L35>
    9d13:	4a          	deca

00009d14 <.L35>:
    9d14:	bd 9f a8    	jsr	9fa8 <___mulhi3>

00009d17 <.LBE2>:
    9d17:	38          	pulx
    9d18:	38          	pulx
    9d19:	38          	pulx
    9d1a:	39          	rts

00009d1b <string_IntegerToString>:
    9d1b:	3c          	pshx
    9d1c:	3c          	pshx
    9d1d:	dd 02       	std	*2 <_.z>

00009d1f <.LBB3>:
    9d1f:	30          	tsx
    9d20:	6f 00       	clr	0,x

00009d22 <.LM41>:
    9d22:	dd 00       	std	*0 <_.tmp>
    9d24:	2a 1a       	bpl	9d40 <.L37>

00009d26 <.LM42>:
    9d26:	5f          	clrb
    9d27:	e1 09       	cmpb	9,x
    9d29:	24 0c       	bcc	9d37 <.L38>
    9d2b:	c6 2d       	ldab	#45
    9d2d:	1a ee 06    	ldy	6,x
    9d30:	18 e7 00    	stab	0,y
    9d33:	c6 01       	ldab	#1
    9d35:	e7 00       	stab	0,x

00009d37 <.L38>:
    9d37:	dc 02       	ldd	*2 <_.z>
    9d39:	43          	coma
    9d3a:	53          	comb
    9d3b:	c3 00 01    	addd	#1 <_.tmp+0x1>
    9d3e:	dd 02       	std	*2 <_.z>

00009d40 <.L37>:
    9d40:	18 ce 00 01 	ldy	#1 <_.tmp+0x1>

00009d44 <.LM45>:
    9d44:	de 02       	ldx	*2 <_.z>
    9d46:	8c 00 09    	cpx	#9 <_.xy+0x5>
    9d49:	23 6d       	bls	9db8 <.L51>

00009d4b <.L42>:
    9d4b:	18 df 00    	sty	*0 <_.tmp>
    9d4e:	dc 00       	ldd	*0 <_.tmp>
    9d50:	05          	asld
    9d51:	05          	asld
    9d52:	18 df 00    	sty	*0 <_.tmp>
    9d55:	d3 00       	addd	*0 <_.tmp>
    9d57:	05          	asld
    9d58:	dd 00       	std	*0 <_.tmp>
    9d5a:	18 de 00    	ldy	*0 <_.tmp>
    9d5d:	05          	asld
    9d5e:	05          	asld
    9d5f:	18 df 00    	sty	*0 <_.tmp>
    9d62:	d3 00       	addd	*0 <_.tmp>
    9d64:	05          	asld
    9d65:	1a 93 02    	cpd	*2 <_.z>
    9d68:	23 e1       	bls	9d4b <.L42>

00009d6a <.LM46>:
    9d6a:	20 4c       	bra	9db8 <.L51>

00009d6c <.L47>:
    9d6c:	dc 02       	ldd	*2 <_.z>
    9d6e:	18 df 00    	sty	*0 <_.tmp>
    9d71:	de 00       	ldx	*0 <_.tmp>
    9d73:	02          	idiv
    9d74:	8f          	xgdx
    9d75:	30          	tsx
    9d76:	e7 01       	stab	1,x

00009d78 <.LM48>:
    9d78:	4f          	clra
    9d79:	18 df 00    	sty	*0 <_.tmp>
    9d7c:	de 00       	ldx	*0 <_.tmp>
    9d7e:	bd 9f a8    	jsr	9fa8 <___mulhi3>
    9d81:	18 df 04    	sty	*4 <_.xy>
    9d84:	18 de 02    	ldy	*2 <_.z>
    9d87:	dd 00       	std	*0 <_.tmp>
    9d89:	18 8f       	xgdy
    9d8b:	93 00       	subd	*0 <_.tmp>
    9d8d:	18 8f       	xgdy

00009d8f <.LM49>:
    9d8f:	30          	tsx
    9d90:	e6 00       	ldab	0,x
    9d92:	18 df 02    	sty	*2 <_.z>
    9d95:	18 de 04    	ldy	*4 <_.xy>
    9d98:	e1 09       	cmpb	9,x
    9d9a:	24 13       	bcc	9daf <.L46>
    9d9c:	ec 06       	ldd	6,x
    9d9e:	eb 00       	addb	0,x
    9da0:	89 00       	adca	#0
    9da2:	ed 02       	std	2,x
    9da4:	e6 01       	ldab	1,x
    9da6:	cb 30       	addb	#48
    9da8:	ee 02       	ldx	2,x
    9daa:	e7 00       	stab	0,x
    9dac:	30          	tsx
    9dad:	6c 00       	inc	0,x

00009daf <.L46>:
    9daf:	18 8f       	xgdy
    9db1:	ce 00 0a    	ldx	#a <_.xy+0x6>
    9db4:	02          	idiv
    9db5:	8f          	xgdx
    9db6:	18 8f       	xgdy

00009db8 <.L51>:
    9db8:	18 8c 00 00 	cpy	#0 <_.tmp>
    9dbc:	26 ae       	bne	9d6c <.L47>

00009dbe <.LM51>:
    9dbe:	18 30       	tsy
    9dc0:	18 e6 00    	ldab	0,y
    9dc3:	18 e1 09    	cmpb	9,y
    9dc6:	24 06       	bcc	9dce <.L48>
    9dc8:	cd ee 06    	ldx	6,y
    9dcb:	3a          	abx
    9dcc:	6f 00       	clr	0,x

00009dce <.L48>:
    9dce:	18 30       	tsy
    9dd0:	cd ee 06    	ldx	6,y
    9dd3:	18 e6 09    	ldab	9,y
    9dd6:	3a          	abx
    9dd7:	6f 00       	clr	0,x

00009dd9 <.LM53>:
    9dd9:	38          	pulx
    9dda:	38          	pulx
    9ddb:	39          	rts

00009ddc <string_IntegerToHex>:
    9ddc:	3c          	pshx
    9ddd:	3c          	pshx
    9dde:	30          	tsx
    9ddf:	ed 00       	std	0,x
    9de1:	1a ee 06    	ldy	6,x

00009de4 <.LBB4>:
    9de4:	e6 09       	ldab	9,x
    9de6:	e7 02       	stab	2,x
    9de8:	e6 09       	ldab	9,x
    9dea:	27 44       	beq	9e30 <.L60>

00009dec <.L59>:
    9dec:	30          	tsx
    9ded:	e6 01       	ldab	1,x
    9def:	c4 0f       	andb	#15
    9df1:	e7 03       	stab	3,x

00009df3 <.LM57>:
    9df3:	18 df 00    	sty	*0 <_.tmp>
    9df6:	dc 00       	ldd	*0 <_.tmp>
    9df8:	eb 02       	addb	2,x
    9dfa:	89 00       	adca	#0
    9dfc:	df 02       	stx	*2 <_.z>
    9dfe:	8f          	xgdx
    9dff:	09          	dex
    9e00:	df 04       	stx	*4 <_.xy>
    9e02:	de 02       	ldx	*2 <_.z>
    9e04:	e6 03       	ldab	3,x
    9e06:	de 04       	ldx	*4 <_.xy>
    9e08:	c1 09       	cmpb	#9
    9e0a:	22 04       	bhi	9e10 <.L57>
    9e0c:	cb 30       	addb	#48
    9e0e:	20 09       	bra	9e19 <.L61>

00009e10 <.L57>:
    9e10:	df 04       	stx	*4 <_.xy>
    9e12:	30          	tsx
    9e13:	e6 03       	ldab	3,x
    9e15:	de 04       	ldx	*4 <_.xy>
    9e17:	cb 37       	addb	#55

00009e19 <.L61>:
    9e19:	e7 00       	stab	0,x

00009e1b <.LM58>:
    9e1b:	30          	tsx
    9e1c:	ec 00       	ldd	0,x
    9e1e:	04          	lsrd
    9e1f:	04          	lsrd
    9e20:	04          	lsrd
    9e21:	04          	lsrd
    9e22:	ed 00       	std	0,x

00009e24 <.LM59>:
    9e24:	6a 02       	dec	2,x
    9e26:	df 02       	stx	*2 <_.z>
    9e28:	3c          	pshx
    9e29:	de 02       	ldx	*2 <_.z>
    9e2b:	e6 02       	ldab	2,x
    9e2d:	38          	pulx
    9e2e:	26 bc       	bne	9dec <.L59>

00009e30 <.L60>:
    9e30:	18 8f       	xgdy
    9e32:	8f          	xgdx
    9e33:	df 04       	stx	*4 <_.xy>
    9e35:	30          	tsx
    9e36:	e6 09       	ldab	9,x
    9e38:	de 04       	ldx	*4 <_.xy>
    9e3a:	3a          	abx
    9e3b:	6f 00       	clr	0,x

00009e3d <.LM61>:
    9e3d:	38          	pulx
    9e3e:	38          	pulx
    9e3f:	39          	rts

00009e40 <string_HexDigitToInteger>:
    9e40:	34          	des
    9e41:	30          	tsx
    9e42:	e7 00       	stab	0,x

00009e44 <.LM63>:
    9e44:	cb d0       	addb	#208
    9e46:	c1 09       	cmpb	#9
    9e48:	22 03       	bhi	9e4d <.L63>
    9e4a:	4f          	clra
    9e4b:	20 22       	bra	9e6f <.L62>

00009e4d <.L63>:
    9e4d:	30          	tsx
    9e4e:	e6 00       	ldab	0,x
    9e50:	cb bf       	addb	#191
    9e52:	c1 05       	cmpb	#5
    9e54:	22 07       	bhi	9e5d <.L64>
    9e56:	e6 00       	ldab	0,x
    9e58:	cb c9       	addb	#201
    9e5a:	4f          	clra
    9e5b:	20 12       	bra	9e6f <.L62>

00009e5d <.L64>:
    9e5d:	30          	tsx
    9e5e:	e6 00       	ldab	0,x
    9e60:	cb 9f       	addb	#159
    9e62:	c1 05       	cmpb	#5
    9e64:	22 07       	bhi	9e6d <.L65>
    9e66:	e6 00       	ldab	0,x
    9e68:	cb a9       	addb	#169
    9e6a:	4f          	clra
    9e6b:	20 02       	bra	9e6f <.L62>

00009e6d <.L65>:
    9e6d:	4f          	clra
    9e6e:	5f          	clrb

00009e6f <.L62>:
    9e6f:	31          	ins
    9e70:	39          	rts

00009e71 <string_HexToInteger>:
    9e71:	3c          	pshx
    9e72:	3c          	pshx
    9e73:	34          	des

00009e74 <.LM69>:
    9e74:	30          	tsx
    9e75:	6f 02       	clr	2,x
    9e77:	6f 01       	clr	1,x

00009e79 <.LM70>:
    9e79:	ed 03       	std	3,x
    9e7b:	20 1a       	bra	9e97 <.L67>

00009e7d <.L71>:
    9e7d:	30          	tsx
    9e7e:	ee 03       	ldx	3,x
    9e80:	e6 00       	ldab	0,x
    9e82:	8d bc       	bsr	9e40 <string_HexDigitToInteger>
    9e84:	30          	tsx
    9e85:	e7 00       	stab	0,x

00009e87 <.LM72>:
    9e87:	c1 10       	cmpb	#16
    9e89:	27 18       	beq	9ea3 <.L68>

00009e8b <.LM73>:
    9e8b:	ec 01       	ldd	1,x
    9e8d:	05          	asld
    9e8e:	05          	asld
    9e8f:	05          	asld
    9e90:	05          	asld
    9e91:	eb 00       	addb	0,x
    9e93:	89 00       	adca	#0
    9e95:	ed 01       	std	1,x

00009e97 <.L67>:
    9e97:	30          	tsx
    9e98:	ee 03       	ldx	3,x
    9e9a:	e6 00       	ldab	0,x
    9e9c:	bd 9b fa    	jsr	9bfa <string_IsHexDigit>
    9e9f:	dd 00       	std	*0 <_.tmp>
    9ea1:	26 da       	bne	9e7d <.L71>

00009ea3 <.L68>:
    9ea3:	30          	tsx
    9ea4:	ec 01       	ldd	1,x

00009ea6 <.LBE5>:
    9ea6:	38          	pulx
    9ea7:	38          	pulx
    9ea8:	31          	ins
    9ea9:	39          	rts

00009eaa <string_Copy>:
    9eaa:	3c          	pshx
    9eab:	3c          	pshx
    9eac:	3c          	pshx
    9ead:	34          	des
    9eae:	30          	tsx
    9eaf:	ed 05       	std	5,x
    9eb1:	1a ee 09    	ldy	9,x

00009eb4 <.LBB6>:
    9eb4:	6f 00       	clr	0,x

00009eb6 <.LM78>:
    9eb6:	5f          	clrb
    9eb7:	e1 0c       	cmpb	12,x
    9eb9:	24 52       	bcc	9f0d <.L74>
    9ebb:	18 e6 00    	ldab	0,y
    9ebe:	27 4d       	beq	9f0d <.L74>

00009ec0 <.L77>:
    9ec0:	18 df 04    	sty	*4 <_.xy>
    9ec3:	18 30       	tsy
    9ec5:	4f          	clra
    9ec6:	18 e6 00    	ldab	0,y
    9ec9:	cd ee 05    	ldx	5,y
    9ecc:	dd 00       	std	*0 <_.tmp>
    9ece:	8f          	xgdx
    9ecf:	d3 00       	addd	*0 <_.tmp>
    9ed1:	8f          	xgdx
    9ed2:	18 df 02    	sty	*2 <_.z>
    9ed5:	18 de 04    	ldy	*4 <_.xy>
    9ed8:	18 df 00    	sty	*0 <_.tmp>
    9edb:	d3 00       	addd	*0 <_.tmp>
    9edd:	df 04       	stx	*4 <_.xy>
    9edf:	de 02       	ldx	*2 <_.z>
    9ee1:	ed 03       	std	3,x
    9ee3:	de 04       	ldx	*4 <_.xy>
    9ee5:	dd 02       	std	*2 <_.z>
    9ee7:	de 02       	ldx	*2 <_.z>
    9ee9:	e6 00       	ldab	0,x
    9eeb:	de 04       	ldx	*4 <_.xy>
    9eed:	e7 00       	stab	0,x

00009eef <.LM80>:
    9eef:	30          	tsx
    9ef0:	6c 00       	inc	0,x
    9ef2:	e6 00       	ldab	0,x
    9ef4:	e1 0c       	cmpb	12,x
    9ef6:	24 15       	bcc	9f0d <.L74>
    9ef8:	18 df 00    	sty	*0 <_.tmp>
    9efb:	dc 00       	ldd	*0 <_.tmp>
    9efd:	eb 00       	addb	0,x
    9eff:	89 00       	adca	#0
    9f01:	ed 01       	std	1,x
    9f03:	dd 02       	std	*2 <_.z>
    9f05:	3c          	pshx
    9f06:	de 02       	ldx	*2 <_.z>
    9f08:	e6 00       	ldab	0,x
    9f0a:	38          	pulx
    9f0b:	26 b3       	bne	9ec0 <.L77>

00009f0d <.L74>:
    9f0d:	18 30       	tsy
    9f0f:	cd ee 05    	ldx	5,y
    9f12:	18 e6 00    	ldab	0,y
    9f15:	3a          	abx
    9f16:	6f 00       	clr	0,x

00009f18 <.LM82>:
    9f18:	38          	pulx
    9f19:	38          	pulx
    9f1a:	38          	pulx
    9f1b:	31          	ins
    9f1c:	39          	rts

00009f1d <string_NextWord>:
    9f1d:	3c          	pshx
    9f1e:	3c          	pshx
    9f1f:	3c          	pshx
    9f20:	30          	tsx
    9f21:	ed 00       	std	0,x

00009f23 <.LBB7>:
    9f23:	cc 00 01    	ldd	#1 <_.tmp+0x1>
    9f26:	ed 02       	std	2,x

00009f28 <.LM85>:
    9f28:	6f 05       	clr	5,x
    9f2a:	6f 04       	clr	4,x

00009f2c <.L87>:
    9f2c:	18 30       	tsy
    9f2e:	cd ee 00    	ldx	0,y
    9f31:	8f          	xgdx
    9f32:	18 e3 04    	addd	4,y
    9f35:	8f          	xgdx
    9f36:	6d 00       	tst	0,x
    9f38:	27 34       	beq	9f6e <.L80>

00009f3a <.LM87>:
    9f3a:	18 ec 02    	ldd	2,y
    9f3d:	27 13       	beq	9f52 <.L83>

00009f3f <.LM88>:
    9f3f:	e6 00       	ldab	0,x
    9f41:	bd 9b c5    	jsr	9bc5 <string_IsSpace>
    9f44:	dd 00       	std	*0 <_.tmp>
    9f46:	27 1b       	beq	9f63 <.L85>
    9f48:	18 30       	tsy
    9f4a:	18 6f 03    	clr	3,y
    9f4d:	18 6f 02    	clr	2,y
    9f50:	20 11       	bra	9f63 <.L85>

00009f52 <.L83>:
    9f52:	30          	tsx
    9f53:	ec 00       	ldd	0,x
    9f55:	e3 04       	addd	4,x
    9f57:	18 8f       	xgdy
    9f59:	18 e6 00    	ldab	0,y
    9f5c:	bd 9b c5    	jsr	9bc5 <string_IsSpace>
    9f5f:	dd 00       	std	*0 <_.tmp>
    9f61:	27 0b       	beq	9f6e <.L80>

00009f63 <.L85>:
    9f63:	30          	tsx
    9f64:	1a ee 04    	ldy	4,x
    9f67:	18 08       	iny
    9f69:	1a ef 04    	sty	4,x
    9f6c:	20 be       	bra	9f2c <.L87>

00009f6e <.L80>:
    9f6e:	30          	tsx
    9f6f:	ec 00       	ldd	0,x
    9f71:	e3 04       	addd	4,x

00009f73 <.LBE7>:
    9f73:	38          	pulx
    9f74:	38          	pulx
    9f75:	38          	pulx
    9f76:	39          	rts

00009f77 <string_SkipSpaces>:
    9f77:	3c          	pshx
    9f78:	3c          	pshx
    9f79:	30          	tsx
    9f7a:	ed 00       	std	0,x

00009f7c <.LBB8>:
    9f7c:	6f 03       	clr	3,x
    9f7e:	6f 02       	clr	2,x

00009f80 <.L93>:
    9f80:	18 30       	tsy
    9f82:	18 ec 00    	ldd	0,y
    9f85:	18 e3 02    	addd	2,y
    9f88:	8f          	xgdx
    9f89:	e6 00       	ldab	0,x
    9f8b:	bd 9b c5    	jsr	9bc5 <string_IsSpace>
    9f8e:	dd 00       	std	*0 <_.tmp>
    9f90:	27 0b       	beq	9f9d <.L90>

00009f92 <.LM96>:
    9f92:	18 30       	tsy
    9f94:	cd ee 02    	ldx	2,y
    9f97:	08          	inx
    9f98:	cd ef 02    	stx	2,y
    9f9b:	20 e3       	bra	9f80 <.L93>

00009f9d <.L90>:
    9f9d:	18 30       	tsy
    9f9f:	18 ec 00    	ldd	0,y
    9fa2:	18 e3 02    	addd	2,y

00009fa5 <.LBE8>:
    9fa5:	38          	pulx
    9fa6:	38          	pulx
    9fa7:	39          	rts

00009fa8 <___mulhi3>:
    9fa8:	df 00       	stx	*0 <_.tmp>
    9faa:	37          	pshb
    9fab:	d6 01       	ldab	*1 <_.tmp+0x1>
    9fad:	3d          	mul
    9fae:	96 00       	ldaa	*0 <_.tmp>
    9fb0:	d7 00       	stab	*0 <_.tmp>
    9fb2:	33          	pulb
    9fb3:	37          	pshb
    9fb4:	3d          	mul
    9fb5:	db 00       	addb	*0 <_.tmp>
    9fb7:	d7 00       	stab	*0 <_.tmp>
    9fb9:	96 01       	ldaa	*1 <_.tmp+0x1>
    9fbb:	33          	pulb
    9fbc:	3d          	mul
    9fbd:	9b 00       	adda	*0 <_.tmp>
    9fbf:	39          	rts

00009fc0 <__memcpy>:
    9fc0:	18 8f       	xgdy
    9fc2:	30          	tsx
    9fc3:	ec 04       	ldd	4,x
    9fc5:	ee 02       	ldx	2,x
    9fc7:	1a 83 00 00 	cpd	#0 <_.tmp>
    9fcb:	27 15       	beq	9fe2 <End>
    9fcd:	18 3c       	pshy
    9fcf:	4c          	inca

00009fd0 <L0>:
    9fd0:	36          	psha

00009fd1 <L1>:
    9fd1:	a6 00       	ldaa	0,x
    9fd3:	18 a7 00    	staa	0,y
    9fd6:	08          	inx
    9fd7:	18 08       	iny
    9fd9:	5a          	decb
    9fda:	26 f5       	bne	9fd1 <L1>
    9fdc:	32          	pula
    9fdd:	4a          	deca
    9fde:	26 f0       	bne	9fd0 <L0>
    9fe0:	18 38       	puly

00009fe2 <End>:
    9fe2:	18 8f       	xgdy
    9fe4:	39          	rts
