
obj\presto.elf:     file format elf32-m68hc11

Disassembly of section .text:

0000c000 <assert_lights>:
    c000:	f6 b8 04    	ldab	b804 <light1>
    c003:	fa b8 05    	orab	b805 <light2>
    c006:	fa b8 06    	orab	b806 <light3>
    c009:	fa b8 07    	orab	b807 <light4>
    c00c:	ce 7f ff    	ldx	#7fff <_io_ports+0x6fff>
    c00f:	ca f0       	orab	#240
    c011:	e7 00       	stab	0,x
    c013:	39          	rts

0000c014 <One>:
    c014:	3c          	pshx
    c015:	3c          	pshx
    c016:	18 30       	tsy
    c018:	4f          	clra
    c019:	5f          	clrb
    c01a:	18 ed 02    	std	2,y
    c01d:	18 ed 00    	std	0,y
    c020:	f6 b8 04    	ldab	b804 <light1>
    c023:	c8 01       	eorb	#1
    c025:	f7 b8 04    	stab	b804 <light1>
    c028:	8d d6       	bsr	c000 <assert_lights>
    c02a:	18 30       	tsy
    c02c:	cd ee 02    	ldx	2,y
    c02f:	3c          	pshx
    c030:	cd ee 00    	ldx	0,y
    c033:	3c          	pshx
    c034:	ce 13 88    	ldx	#1388 <_io_ports+0x388>
    c037:	3c          	pshx
    c038:	f6 b8 00    	ldab	b800 <one_tid>
    c03b:	bd c6 60    	jsr	c660 <presto_timer>
    c03e:	18 30       	tsy
    c040:	18 8f       	xgdy
    c042:	c3 00 06    	addd	#6 <_.xy+0x2>
    c045:	bd c7 81    	jsr	c781 <presto_wait_for_message>
    c048:	38          	pulx
    c049:	38          	pulx
    c04a:	38          	pulx
    c04b:	20 d3       	bra	c020 <One+0xc>

0000c04d <Two>:
    c04d:	3c          	pshx
    c04e:	3c          	pshx
    c04f:	18 30       	tsy
    c051:	4f          	clra
    c052:	5f          	clrb
    c053:	18 ed 02    	std	2,y
    c056:	18 ed 00    	std	0,y
    c059:	f6 b8 05    	ldab	b805 <light2>
    c05c:	c8 02       	eorb	#2
    c05e:	f7 b8 05    	stab	b805 <light2>
    c061:	8d 9d       	bsr	c000 <assert_lights>
    c063:	18 30       	tsy
    c065:	cd ee 02    	ldx	2,y
    c068:	3c          	pshx
    c069:	cd ee 00    	ldx	0,y
    c06c:	3c          	pshx
    c06d:	ce 02 58    	ldx	#258 <fatal+0x24f>
    c070:	3c          	pshx
    c071:	f6 b8 01    	ldab	b801 <two_tid>
    c074:	bd c6 60    	jsr	c660 <presto_timer>
    c077:	18 30       	tsy
    c079:	18 8f       	xgdy
    c07b:	c3 00 06    	addd	#6 <_.xy+0x2>
    c07e:	bd c7 81    	jsr	c781 <presto_wait_for_message>
    c081:	38          	pulx
    c082:	38          	pulx
    c083:	38          	pulx
    c084:	20 d3       	bra	c059 <Two+0xc>

0000c086 <Three>:
    c086:	3c          	pshx
    c087:	3c          	pshx
    c088:	18 30       	tsy
    c08a:	4f          	clra
    c08b:	5f          	clrb
    c08c:	18 ed 02    	std	2,y
    c08f:	18 ed 00    	std	0,y
    c092:	f6 b8 06    	ldab	b806 <light3>
    c095:	c8 04       	eorb	#4
    c097:	f7 b8 06    	stab	b806 <light3>
    c09a:	bd c0 00    	jsr	c000 <assert_lights>
    c09d:	18 30       	tsy
    c09f:	cd ee 02    	ldx	2,y
    c0a2:	3c          	pshx
    c0a3:	cd ee 00    	ldx	0,y
    c0a6:	3c          	pshx
    c0a7:	ce 03 e8    	ldx	#3e8 <fatal+0x3df>
    c0aa:	3c          	pshx
    c0ab:	f6 b8 02    	ldab	b802 <three_tid>
    c0ae:	bd c6 60    	jsr	c660 <presto_timer>
    c0b1:	18 30       	tsy
    c0b3:	18 8f       	xgdy
    c0b5:	c3 00 06    	addd	#6 <_.xy+0x2>
    c0b8:	bd c7 81    	jsr	c781 <presto_wait_for_message>
    c0bb:	38          	pulx
    c0bc:	38          	pulx
    c0bd:	38          	pulx
    c0be:	20 d2       	bra	c092 <Three+0xc>

0000c0c0 <Four>:
    c0c0:	3c          	pshx
    c0c1:	3c          	pshx
    c0c2:	18 30       	tsy
    c0c4:	4f          	clra
    c0c5:	5f          	clrb
    c0c6:	18 ed 02    	std	2,y
    c0c9:	18 ed 00    	std	0,y
    c0cc:	f6 b8 07    	ldab	b807 <light4>
    c0cf:	c8 08       	eorb	#8
    c0d1:	f7 b8 07    	stab	b807 <light4>
    c0d4:	bd c0 00    	jsr	c000 <assert_lights>
    c0d7:	18 30       	tsy
    c0d9:	cd ee 02    	ldx	2,y
    c0dc:	3c          	pshx
    c0dd:	cd ee 00    	ldx	0,y
    c0e0:	3c          	pshx
    c0e1:	ce 04 b0    	ldx	#4b0 <fatal+0x4a7>
    c0e4:	3c          	pshx
    c0e5:	f6 b8 03    	ldab	b803 <four_tid>
    c0e8:	bd c6 60    	jsr	c660 <presto_timer>
    c0eb:	18 30       	tsy
    c0ed:	18 8f       	xgdy
    c0ef:	c3 00 06    	addd	#6 <_.xy+0x2>
    c0f2:	bd c7 81    	jsr	c781 <presto_wait_for_message>
    c0f5:	38          	pulx
    c0f6:	38          	pulx
    c0f7:	38          	pulx
    c0f8:	20 d2       	bra	c0cc <Four+0xc>

0000c0fa <main>:
    c0fa:	bd c3 0c    	jsr	c30c <presto_init>
    c0fd:	c6 23       	ldab	#35
    c0ff:	37          	pshb
    c100:	34          	des
    c101:	18 ce 01 00 	ldy	#100 <fatal+0xf7>
    c105:	18 3c       	pshy
    c107:	ce c9 19    	ldx	#c919 <task_one_stack>
    c10a:	3c          	pshx
    c10b:	cc c0 14    	ldd	#c014 <One>
    c10e:	bd c4 56    	jsr	c456 <presto_create_task>
    c111:	f7 b8 00    	stab	b800 <one_tid>
    c114:	c6 28       	ldab	#40
    c116:	37          	pshb
    c117:	34          	des
    c118:	18 ce 01 00 	ldy	#100 <fatal+0xf7>
    c11c:	18 3c       	pshy
    c11e:	ce cc 19    	ldx	#cc19 <task_two_stack>
    c121:	3c          	pshx
    c122:	cc c0 4d    	ldd	#c04d <Two>
    c125:	bd c4 56    	jsr	c456 <presto_create_task>
    c128:	f7 b8 01    	stab	b801 <two_tid>
    c12b:	c6 2d       	ldab	#45
    c12d:	37          	pshb
    c12e:	34          	des
    c12f:	18 ce 01 00 	ldy	#100 <fatal+0xf7>
    c133:	18 3c       	pshy
    c135:	ce cb 19    	ldx	#cb19 <task_three_stack>
    c138:	3c          	pshx
    c139:	cc c0 86    	ldd	#c086 <Three>
    c13c:	bd c4 56    	jsr	c456 <presto_create_task>
    c13f:	f7 b8 02    	stab	b802 <three_tid>
    c142:	c6 32       	ldab	#50
    c144:	37          	pshb
    c145:	34          	des
    c146:	18 ce 01 00 	ldy	#100 <fatal+0xf7>
    c14a:	18 3c       	pshy
    c14c:	ce ca 19    	ldx	#ca19 <task_four_stack>
    c14f:	3c          	pshx
    c150:	cc c0 c0    	ldd	#c0c0 <Four>
    c153:	bd c4 56    	jsr	c456 <presto_create_task>
    c156:	f7 b8 03    	stab	b803 <four_tid>
    c159:	bd c4 10    	jsr	c410 <presto_start_scheduler>
    c15c:	bd c2 db    	jsr	c2db <presto_fatal_error>
    c15f:	4f          	clra
    c160:	5f          	clrb
    c161:	30          	tsx
    c162:	8f          	xgdx
    c163:	c3 00 18    	addd	#18 <fatal+0xf>
    c166:	8f          	xgdx
    c167:	35          	txs
    c168:	39          	rts

0000c169 <clock_reset>:
    c169:	3c          	pshx
    c16a:	3c          	pshx
    c16b:	8f          	xgdx
    c16c:	18 30       	tsy
    c16e:	4f          	clra
    c16f:	5f          	clrb
    c170:	18 ed 02    	std	2,y
    c173:	18 ed 00    	std	0,y
    c176:	ed 02       	std	2,x
    c178:	ed 00       	std	0,x
    c17a:	8f          	xgdx
    c17b:	38          	pulx
    c17c:	38          	pulx
    c17d:	39          	rts

0000c17e <clock_add>:
    c17e:	8f          	xgdx
    c17f:	18 30       	tsy
    c181:	18 ec 06    	ldd	6,y
    c184:	df 04       	stx	*4 <_.xy>
    c186:	cd ee 04    	ldx	4,y
    c189:	dd 00       	std	*0 <_.tmp>
    c18b:	8f          	xgdx
    c18c:	d3 00       	addd	*0 <_.tmp>
    c18e:	8f          	xgdx
    c18f:	cd ef 04    	stx	4,y
    c192:	de 04       	ldx	*4 <_.xy>
    c194:	cd a3 04    	cpd	4,y
    c197:	23 09       	bls	c1a2 <clock_add+0x24>
    c199:	cd ee 02    	ldx	2,y
    c19c:	08          	inx
    c19d:	cd ef 02    	stx	2,y
    c1a0:	de 04       	ldx	*4 <_.xy>
    c1a2:	18 30       	tsy
    c1a4:	18 ec 04    	ldd	4,y
    c1a7:	ed 02       	std	2,x
    c1a9:	18 ec 02    	ldd	2,y
    c1ac:	ed 00       	std	0,x
    c1ae:	8f          	xgdx
    c1af:	39          	rts

0000c1b0 <clock_compare>:
    c1b0:	3c          	pshx
    c1b1:	3c          	pshx
    c1b2:	18 30       	tsy
    c1b4:	18 ed 02    	std	2,y
    c1b7:	cd ef 00    	stx	0,y
    c1ba:	8f          	xgdx
    c1bb:	cd a3 06    	cpd	6,y
    c1be:	25 0a       	bcs	c1ca <clock_compare+0x1a>
    c1c0:	22 17       	bhi	c1d9 <clock_compare+0x29>
    c1c2:	18 ec 02    	ldd	2,y
    c1c5:	cd a3 08    	cpd	8,y
    c1c8:	24 05       	bcc	c1cf <clock_compare+0x1f>
    c1ca:	cc ff ff    	ldd	#ffff <normal_interrupt_vectors+0x3f>
    c1cd:	20 11       	bra	c1e0 <clock_compare+0x30>
    c1cf:	18 30       	tsy
    c1d1:	18 ec 02    	ldd	2,y
    c1d4:	cd a3 08    	cpd	8,y
    c1d7:	23 05       	bls	c1de <clock_compare+0x2e>
    c1d9:	cc 00 01    	ldd	#1 <_.tmp+0x1>
    c1dc:	20 02       	bra	c1e0 <clock_compare+0x30>
    c1de:	4f          	clra
    c1df:	5f          	clrb
    c1e0:	38          	pulx
    c1e1:	38          	pulx
    c1e2:	39          	rts

0000c1e3 <__premain>:
    c1e3:	0f          	sei
    c1e4:	ce 10 3d    	ldx	#103d <_io_ports+0x3d>
    c1e7:	c6 01       	ldab	#1
    c1e9:	e7 00       	stab	0,x
    c1eb:	ce 10 22    	ldx	#1022 <_io_ports+0x22>
    c1ee:	5f          	clrb
    c1ef:	e7 00       	stab	0,x
    c1f1:	ce 10 24    	ldx	#1024 <_io_ports+0x24>
    c1f4:	e7 00       	stab	0,x
    c1f6:	ce 10 28    	ldx	#1028 <_io_ports+0x28>
    c1f9:	c6 04       	ldab	#4
    c1fb:	e7 00       	stab	0,x
    c1fd:	ce 10 2d    	ldx	#102d <_io_ports+0x2d>
    c200:	5f          	clrb
    c201:	e7 00       	stab	0,x
    c203:	ce 10 02    	ldx	#1002 <_io_ports+0x2>
    c206:	e7 00       	stab	0,x
    c208:	ce 10 3f    	ldx	#103f <_io_ports+0x3f>
    c20b:	c6 0c       	ldab	#12
    c20d:	e7 00       	stab	0,x
    c20f:	ce 10 39    	ldx	#1039 <_io_ports+0x39>
    c212:	c6 a0       	ldab	#160
    c214:	e7 00       	stab	0,x
    c216:	cc c2 9e    	ldd	#c29e <inert_sci_isr>
    c219:	fd ff c0    	std	ffc0 <normal_interrupt_vectors>
    c21c:	cc c2 a0    	ldd	#c2a0 <inert_spi_isr>
    c21f:	fd ff c2    	std	ffc2 <normal_interrupt_vectors+0x2>
    c222:	cc c2 a2    	ldd	#c2a2 <inert_paie_isr>
    c225:	fd ff c4    	std	ffc4 <normal_interrupt_vectors+0x4>
    c228:	cc c2 a4    	ldd	#c2a4 <inert_pao_isr>
    c22b:	fd ff c6    	std	ffc6 <normal_interrupt_vectors+0x6>
    c22e:	cc c2 a6    	ldd	#c2a6 <inert_tof_isr>
    c231:	fd ff c8    	std	ffc8 <normal_interrupt_vectors+0x8>
    c234:	cc c2 a8    	ldd	#c2a8 <inert_toc5_isr>
    c237:	fd ff ca    	std	ffca <normal_interrupt_vectors+0xa>
    c23a:	cc c2 aa    	ldd	#c2aa <inert_toc4_isr>
    c23d:	fd ff cc    	std	ffcc <normal_interrupt_vectors+0xc>
    c240:	cc c2 ac    	ldd	#c2ac <inert_toc3_isr>
    c243:	fd ff ce    	std	ffce <normal_interrupt_vectors+0xe>
    c246:	cc c2 ae    	ldd	#c2ae <inert_toc2_isr>
    c249:	fd ff d0    	std	ffd0 <normal_interrupt_vectors+0x10>
    c24c:	cc c2 b0    	ldd	#c2b0 <inert_toc1_isr>
    c24f:	fd ff d2    	std	ffd2 <normal_interrupt_vectors+0x12>
    c252:	cc c2 b2    	ldd	#c2b2 <inert_tic3_isr>
    c255:	fd ff d4    	std	ffd4 <normal_interrupt_vectors+0x14>
    c258:	cc c2 b4    	ldd	#c2b4 <inert_tic2_isr>
    c25b:	fd ff d6    	std	ffd6 <normal_interrupt_vectors+0x16>
    c25e:	cc c2 b6    	ldd	#c2b6 <inert_tic1_isr>
    c261:	fd ff d8    	std	ffd8 <normal_interrupt_vectors+0x18>
    c264:	cc c2 b8    	ldd	#c2b8 <inert_rti_isr>
    c267:	fd ff da    	std	ffda <normal_interrupt_vectors+0x1a>
    c26a:	cc c2 ba    	ldd	#c2ba <inert_irq_isr>
    c26d:	fd ff dc    	std	ffdc <normal_interrupt_vectors+0x1c>
    c270:	cc c2 bc    	ldd	#c2bc <inert_xirq_isr>
    c273:	fd ff de    	std	ffde <normal_interrupt_vectors+0x1e>
    c276:	cc c2 be    	ldd	#c2be <inert_swi_isr>
    c279:	fd ff e0    	std	ffe0 <normal_interrupt_vectors+0x20>
    c27c:	cc c2 db    	ldd	#c2db <presto_fatal_error>
    c27f:	fd ff e2    	std	ffe2 <normal_interrupt_vectors+0x22>
    c282:	cc c2 c2    	ldd	#c2c2 <inert_cop_isr>
    c285:	fd ff e4    	std	ffe4 <normal_interrupt_vectors+0x24>
    c288:	cc c2 c4    	ldd	#c2c4 <inert_clm_isr>
    c28b:	fd ff e6    	std	ffe6 <normal_interrupt_vectors+0x26>
    c28e:	cc 00 00    	ldd	#0 <_.tmp>
    c291:	fd ff e8    	std	ffe8 <normal_interrupt_vectors+0x28>
    c294:	ce 10 3c    	ldx	#103c <_io_ports+0x3c>
    c297:	c6 25       	ldab	#37
    c299:	e7 00       	stab	0,x
    c29b:	39          	rts

0000c29c <inert_isr>:
    c29c:	3b          	rti
    c29d:	39          	rts

0000c29e <inert_sci_isr>:
    c29e:	3b          	rti
    c29f:	39          	rts

0000c2a0 <inert_spi_isr>:
    c2a0:	3b          	rti
    c2a1:	39          	rts

0000c2a2 <inert_paie_isr>:
    c2a2:	3b          	rti
    c2a3:	39          	rts

0000c2a4 <inert_pao_isr>:
    c2a4:	3b          	rti
    c2a5:	39          	rts

0000c2a6 <inert_tof_isr>:
    c2a6:	3b          	rti
    c2a7:	39          	rts

0000c2a8 <inert_toc5_isr>:
    c2a8:	3b          	rti
    c2a9:	39          	rts

0000c2aa <inert_toc4_isr>:
    c2aa:	3b          	rti
    c2ab:	39          	rts

0000c2ac <inert_toc3_isr>:
    c2ac:	3b          	rti
    c2ad:	39          	rts

0000c2ae <inert_toc2_isr>:
    c2ae:	3b          	rti
    c2af:	39          	rts

0000c2b0 <inert_toc1_isr>:
    c2b0:	3b          	rti
    c2b1:	39          	rts

0000c2b2 <inert_tic3_isr>:
    c2b2:	3b          	rti
    c2b3:	39          	rts

0000c2b4 <inert_tic2_isr>:
    c2b4:	3b          	rti
    c2b5:	39          	rts

0000c2b6 <inert_tic1_isr>:
    c2b6:	3b          	rti
    c2b7:	39          	rts

0000c2b8 <inert_rti_isr>:
    c2b8:	3b          	rti
    c2b9:	39          	rts

0000c2ba <inert_irq_isr>:
    c2ba:	3b          	rti
    c2bb:	39          	rts

0000c2bc <inert_xirq_isr>:
    c2bc:	3b          	rti
    c2bd:	39          	rts

0000c2be <inert_swi_isr>:
    c2be:	3b          	rti
    c2bf:	39          	rts

0000c2c0 <inert_illop_isr>:
    c2c0:	3b          	rti
    c2c1:	39          	rts

0000c2c2 <inert_cop_isr>:
    c2c2:	3b          	rti
    c2c3:	39          	rts

0000c2c4 <inert_clm_isr>:
    c2c4:	3b          	rti
    c2c5:	39          	rts

0000c2c6 <inert_reset_isr>:
    c2c6:	3b          	rti
    c2c7:	39          	rts

0000c2c8 <set_interrupt>:
    c2c8:	c1 14       	cmpb	#20
    c2ca:	22 0d       	bhi	c2d9 <set_interrupt+0x11>
    c2cc:	4f          	clra
    c2cd:	05          	asld
    c2ce:	c3 ff c0    	addd	#ffc0 <normal_interrupt_vectors>
    c2d1:	30          	tsx
    c2d2:	1a ee 02    	ldy	2,x
    c2d5:	8f          	xgdx
    c2d6:	1a ef 00    	sty	0,x
    c2d9:	39          	rts

0000c2da <exit>:
    c2da:	39          	rts

0000c2db <presto_fatal_error>:
    c2db:	34          	des
    c2dc:	0f          	sei
    c2dd:	8e b5 ff    	lds	#b5ff <_stack>
    c2e0:	ce 10 09    	ldx	#1009 <_io_ports+0x9>
    c2e3:	1c 00 10    	bset	0,x #$10
    c2e6:	ce 10 00    	ldx	#1000 <_io_ports>
    c2e9:	e6 00       	ldab	0,x
    c2eb:	c8 08       	eorb	#8
    c2ed:	e7 00       	stab	0,x
    c2ef:	ce 10 08    	ldx	#1008 <_io_ports+0x8>
    c2f2:	1d 00 10    	bclr	0,x #$10
    c2f5:	30          	tsx
    c2f6:	6a 00       	dec	0,x
    c2f8:	27 ec       	beq	c2e6 <presto_fatal_error+0xb>
    c2fa:	ce 7f ff    	ldx	#7fff <_io_ports+0x6fff>
    c2fd:	18 30       	tsy
    c2ff:	18 e6 00    	ldab	0,y
    c302:	e7 00       	stab	0,x
    c304:	5a          	decb
    c305:	18 e7 00    	stab	0,y
    c308:	26 f0       	bne	c2fa <presto_fatal_error+0x1f>
    c30a:	20 da       	bra	c2e6 <presto_fatal_error+0xb>

0000c30c <presto_init>:
    c30c:	30          	tsx
    c30d:	8f          	xgdx
    c30e:	c3 ff f6    	addd	#fff6 <normal_interrupt_vectors+0x36>
    c311:	8f          	xgdx
    c312:	35          	txs
    c313:	f6 b8 15    	ldab	b815 <presto_initialized>
    c316:	18 30       	tsy
    c318:	18 e7 05    	stab	5,y
    c31b:	27 03       	beq	c320 <presto_init+0x14>
    c31d:	7e c4 08    	jmp	c408 <.L1>
    c320:	c6 01       	ldab	#1
    c322:	f7 b8 15    	stab	b815 <presto_initialized>
    c325:	8f          	xgdx
    c326:	30          	tsx
    c327:	8f          	xgdx
    c328:	bd c1 69    	jsr	c169 <clock_reset>
    c32b:	18 30       	tsy
    c32d:	18 ec 02    	ldd	2,y
    c330:	fd cd 1b    	std	cd1b <presto_master_clock+0x2>
    c333:	18 ec 00    	ldd	0,y
    c336:	fd cd 19    	std	cd19 <presto_master_clock>
    c339:	18 e6 05    	ldab	5,y
    c33c:	18 e7 04    	stab	4,y
    c33f:	18 ce cd 5c 	ldy	#cd5c <tcb_list+0x8>
    c343:	ce cd 5e    	ldx	#cd5e <tcb_list+0xa>
    c346:	df 04       	stx	*4 <_.xy>
    c348:	30          	tsx
    c349:	6f 07       	clr	7,x
    c34b:	6f 06       	clr	6,x
    c34d:	de 04       	ldx	*4 <_.xy>
    c34f:	18 df 04    	sty	*4 <_.xy>
    c352:	18 30       	tsy
    c354:	18 ec 06    	ldd	6,y
    c357:	c3 cd 64    	addd	#cd64 <tcb_list+0x10>
    c35a:	ed 00       	std	0,x
    c35c:	18 ec 06    	ldd	6,y
    c35f:	c3 cd 54    	addd	#cd54 <tcb_list>
    c362:	18 ed 08    	std	8,y
    c365:	18 e6 04    	ldab	4,y
    c368:	18 ee 08    	ldy	8,y
    c36b:	18 e7 00    	stab	0,y
    c36e:	18 de 04    	ldy	*4 <_.xy>
    c371:	cc 00 02    	ldd	#2 <_.z>
    c374:	18 ed 00    	std	0,y
    c377:	18 8f       	xgdy
    c379:	c3 00 10    	addd	#10 <fatal+0x7>
    c37c:	18 8f       	xgdy
    c37e:	8f          	xgdx
    c37f:	c3 00 10    	addd	#10 <fatal+0x7>
    c382:	8f          	xgdx
    c383:	df 04       	stx	*4 <_.xy>
    c385:	30          	tsx
    c386:	ec 06       	ldd	6,x
    c388:	c3 00 10    	addd	#10 <fatal+0x7>
    c38b:	ed 06       	std	6,x
    c38d:	6c 04       	inc	4,x
    c38f:	e6 04       	ldab	4,x
    c391:	df 02       	stx	*2 <_.z>
    c393:	de 04       	ldx	*4 <_.xy>
    c395:	c1 05       	cmpb	#5
    c397:	23 b6       	bls	c34f <presto_init+0x43>
    c399:	4f          	clra
    c39a:	5f          	clrb
    c39b:	fd cd ae    	std	cdae <tcb_list+0x5a>
    c39e:	18 ce cd 54 	ldy	#cd54 <tcb_list>
    c3a2:	18 ff b8 13 	sty	b813 <free_tcb_p>
    c3a6:	de 02       	ldx	*2 <_.z>
    c3a8:	e7 04       	stab	4,x
    c3aa:	de 04       	ldx	*4 <_.xy>
    c3ac:	c6 0f       	ldab	#15
    c3ae:	30          	tsx
    c3af:	a6 04       	ldaa	4,x
    c3b1:	3d          	mul
    c3b2:	dd 00       	std	*0 <_.tmp>
    c3b4:	18 de 00    	ldy	*0 <_.tmp>
    c3b7:	c3 cd c1    	addd	#cdc1 <mail_list+0xd>
    c3ba:	18 8f       	xgdy
    c3bc:	df 02       	stx	*2 <_.z>
    c3be:	37          	pshb
    c3bf:	36          	psha
    c3c0:	38          	pulx
    c3c1:	c3 cd c3    	addd	#cdc3 <mail_list+0xf>
    c3c4:	8f          	xgdx
    c3c5:	cd ef 00    	stx	0,y
    c3c8:	c3 cd b4    	addd	#cdb4 <mail_list>
    c3cb:	18 8f       	xgdy
    c3cd:	de 02       	ldx	*2 <_.z>
    c3cf:	e6 04       	ldab	4,x
    c3d1:	18 6f 00    	clr	0,y
    c3d4:	18 e7 01    	stab	1,y
    c3d7:	5c          	incb
    c3d8:	e7 04       	stab	4,x
    c3da:	c1 13       	cmpb	#19
    c3dc:	23 ce       	bls	c3ac <presto_init+0xa0>
    c3de:	4f          	clra
    c3df:	5f          	clrb
    c3e0:	fd ce de    	std	cede <mail_list+0x12a>
    c3e3:	18 ce cd b4 	ldy	#cdb4 <mail_list>
    c3e7:	18 ff b8 16 	sty	b816 <free_mail_p>
    c3eb:	37          	pshb
    c3ec:	34          	des
    c3ed:	ce 00 32    	ldx	#32 <fatal+0x29>
    c3f0:	3c          	pshx
    c3f1:	18 ce cd 20 	ldy	#cd20 <idle_stack>
    c3f5:	18 3c       	pshy
    c3f7:	cc c8 b6    	ldd	#c8b6 <idle_task>
    c3fa:	8d 5a       	bsr	c456 <presto_create_task>
    c3fc:	f7 cd 1d    	stab	cd1d <idle_tid>
    c3ff:	bd c8 b8    	jsr	c8b8 <tid_to_tcbptr>
    c402:	fd cd 52    	std	cd52 <idle_tcb_p>
    c405:	38          	pulx
    c406:	38          	pulx
    c407:	38          	pulx

0000c408 <.L1>:
    c408:	30          	tsx
    c409:	8f          	xgdx
    c40a:	c3 00 0a    	addd	#a <fatal+0x1>
    c40d:	8f          	xgdx
    c40e:	35          	txs
    c40f:	39          	rts

0000c410 <presto_start_scheduler>:
    c410:	7d b8 15    	tst	b815 <presto_initialized>
    c413:	26 03       	bne	c418 <presto_start_scheduler+0x8>
    c415:	bd c2 db    	jsr	c2db <presto_fatal_error>
    c418:	0f          	sei
    c419:	ce c5 53    	ldx	#c553 <presto_system_isr>
    c41c:	3c          	pshx
    c41d:	c6 08       	ldab	#8
    c41f:	bd c2 c8    	jsr	c2c8 <set_interrupt>
    c422:	18 ce c5 d2 	ldy	#c5d2 <context_switch>
    c426:	18 3c       	pshy
    c428:	c6 10       	ldab	#16
    c42a:	bd c2 c8    	jsr	c2c8 <set_interrupt>
    c42d:	bd c8 e6    	jsr	c8e6 <presto_start_master_timer>
    c430:	fc b8 11    	ldd	b811 <tcb_head_p>
    c433:	fd b8 0e    	std	b80e <current_tcb_p>
    c436:	38          	pulx
    c437:	38          	pulx
    c438:	26 03       	bne	c43d <presto_start_scheduler+0x2d>
    c43a:	bd c2 db    	jsr	c2db <presto_fatal_error>
    c43d:	fe b8 0e    	ldx	b80e <current_tcb_p>
    c440:	e6 00       	ldab	0,x
    c442:	f7 b8 10    	stab	b810 <current_tid>
    c445:	1a ee 01    	ldy	1,x
    c448:	18 ff b8 08 	sty	b808 <global_new_sp>
    c44c:	be b8 08    	lds	b808 <global_new_sp>
    c44f:	32          	pula
    c450:	36          	psha
    c451:	3b          	rti
    c452:	bd c2 db    	jsr	c2db <presto_fatal_error>
    c455:	39          	rts

0000c456 <presto_create_task>:
    c456:	3c          	pshx
    c457:	3c          	pshx
    c458:	30          	tsx
    c459:	ed 00       	std	0,x
    c45b:	f6 b8 15    	ldab	b815 <presto_initialized>
    c45e:	26 03       	bne	c463 <presto_create_task+0xd>
    c460:	bd c2 db    	jsr	c2db <presto_fatal_error>
    c463:	fe b8 13    	ldx	b813 <free_tcb_p>
    c466:	26 09       	bne	c471 <presto_create_task+0x1b>
    c468:	bd c2 db    	jsr	c2db <presto_fatal_error>
    c46b:	cc ff ff    	ldd	#ffff <normal_interrupt_vectors+0x3f>
    c46e:	7e c5 4c    	jmp	c54c <.L18>
    c471:	0f          	sei
    c472:	ec 0a       	ldd	10,x
    c474:	fd b8 13    	std	b813 <free_tcb_p>
    c477:	18 30       	tsy
    c479:	18 ec 06    	ldd	6,y
    c47c:	18 e3 08    	addd	8,y
    c47f:	18 8f       	xgdy
    c481:	18 09       	dey
    c483:	1a ef 03    	sty	3,x
    c486:	18 df 04    	sty	*4 <_.xy>
    c489:	18 30       	tsy
    c48b:	18 ee 06    	ldy	6,y
    c48e:	1a ef 05    	sty	5,x
    c491:	18 de 04    	ldy	*4 <_.xy>
    c494:	1a ef 01    	sty	1,x
    c497:	18 30       	tsy
    c499:	18 e6 0b    	ldab	11,y
    c49c:	e7 07       	stab	7,x
    c49e:	4f          	clra
    c49f:	5f          	clrb
    c4a0:	ed 08       	std	8,x
    c4a2:	ed 0c       	std	12,x
    c4a4:	ed 0e       	std	14,x
    c4a6:	18 df 02    	sty	*2 <_.z>
    c4a9:	18 de 04    	ldy	*4 <_.xy>
    c4ac:	18 ff b8 08 	sty	b808 <global_new_sp>
    c4b0:	df 04       	stx	*4 <_.xy>
    c4b2:	de 02       	ldx	*2 <_.z>
    c4b4:	ec 00       	ldd	0,x
    c4b6:	de 04       	ldx	*4 <_.xy>
    c4b8:	fd b8 0c    	std	b80c <global_new_fn>
    c4bb:	bf cd 1e    	sts	cd1e <global_save_sp>
    c4be:	be b8 08    	lds	b808 <global_new_sp>
    c4c1:	fc b8 0c    	ldd	b80c <global_new_fn>
    c4c4:	37          	pshb
    c4c5:	36          	psha
    c4c6:	86 00       	ldaa	#0
    c4c8:	36          	psha
    c4c9:	36          	psha
    c4ca:	36          	psha
    c4cb:	36          	psha
    c4cc:	36          	psha
    c4cd:	36          	psha
    c4ce:	07          	tpa
    c4cf:	36          	psha
    c4d0:	bf b8 08    	sts	b808 <global_new_sp>
    c4d3:	be cd 1e    	lds	cd1e <global_save_sp>
    c4d6:	fe b8 11    	ldx	b811 <tcb_head_p>
    c4d9:	3c          	pshx
    c4da:	32          	pula
    c4db:	33          	pulb
    c4dc:	df 02       	stx	*2 <_.z>
    c4de:	de 04       	ldx	*4 <_.xy>
    c4e0:	dd 00       	std	*0 <_.tmp>
    c4e2:	26 07       	bne	c4eb <presto_create_task+0x95>
    c4e4:	ff b8 11    	stx	b811 <tcb_head_p>
    c4e7:	ed 0a       	std	10,x
    c4e9:	20 5a       	bra	c545 <presto_create_task+0xef>
    c4eb:	18 30       	tsy
    c4ed:	18 e6 0b    	ldab	11,y
    c4f0:	3c          	pshx
    c4f1:	de 02       	ldx	*2 <_.z>
    c4f3:	e1 07       	cmpb	7,x
    c4f5:	38          	pulx
    c4f6:	23 0d       	bls	c505 <presto_create_task+0xaf>
    c4f8:	dd 04       	std	*4 <_.xy>
    c4fa:	dc 02       	ldd	*2 <_.z>
    c4fc:	ed 0a       	std	10,x
    c4fe:	dc 04       	ldd	*4 <_.xy>
    c500:	ff b8 11    	stx	b811 <tcb_head_p>
    c503:	20 40       	bra	c545 <presto_create_task+0xef>
    c505:	18 30       	tsy
    c507:	df 04       	stx	*4 <_.xy>
    c509:	de 02       	ldx	*2 <_.z>
    c50b:	cd ef 02    	stx	2,y
    c50e:	ec 0a       	ldd	10,x
    c510:	de 04       	ldx	*4 <_.xy>
    c512:	dd 00       	std	*0 <_.tmp>
    c514:	27 1c       	beq	c532 <presto_create_task+0xdc>
    c516:	18 30       	tsy
    c518:	18 ee 02    	ldy	2,y
    c51b:	18 ee 0a    	ldy	10,y
    c51e:	e6 07       	ldab	7,x
    c520:	18 e1 07    	cmpb	7,y
    c523:	22 0d       	bhi	c532 <presto_create_task+0xdc>
    c525:	df 04       	stx	*4 <_.xy>
    c527:	30          	tsx
    c528:	1a ef 02    	sty	2,x
    c52b:	de 04       	ldx	*4 <_.xy>
    c52d:	18 ec 0a    	ldd	10,y
    c530:	26 e4       	bne	c516 <presto_create_task+0xc0>
    c532:	18 30       	tsy
    c534:	18 ee 02    	ldy	2,y
    c537:	18 ee 0a    	ldy	10,y
    c53a:	1a ef 0a    	sty	10,x
    c53d:	18 30       	tsy
    c53f:	18 ee 02    	ldy	2,y
    c542:	cd ef 0a    	stx	10,y
    c545:	0e          	cli
    c546:	4f          	clra
    c547:	e6 00       	ldab	0,x
    c549:	2a 01       	bpl	c54c <.L18>
    c54b:	4a          	deca

0000c54c <.L18>:
    c54c:	38          	pulx
    c54d:	38          	pulx
    c54e:	39          	rts

0000c54f <presto_kill_self>:
    c54f:	bd c2 db    	jsr	c2db <presto_fatal_error>
    c552:	39          	rts

0000c553 <presto_system_isr>:
    c553:	de 00       	ldx	*0 <_.tmp>
    c555:	3c          	pshx
    c556:	de 02       	ldx	*2 <_.z>
    c558:	3c          	pshx
    c559:	de 04       	ldx	*4 <_.xy>
    c55b:	3c          	pshx
    c55c:	3c          	pshx
    c55d:	3c          	pshx
    c55e:	ce 00 64    	ldx	#64 <fatal+0x5b>
    c561:	3c          	pshx
    c562:	fe cd 1b    	ldx	cd1b <presto_master_clock+0x2>
    c565:	3c          	pshx
    c566:	fe cd 19    	ldx	cd19 <presto_master_clock>
    c569:	3c          	pshx
    c56a:	18 30       	tsy
    c56c:	18 8f       	xgdy
    c56e:	c3 00 06    	addd	#6 <_.xy+0x2>
    c571:	bd c1 7e    	jsr	c17e <clock_add>
    c574:	18 30       	tsy
    c576:	18 ec 08    	ldd	8,y
    c579:	fd cd 1b    	std	cd1b <presto_master_clock+0x2>
    c57c:	18 ec 06    	ldd	6,y
    c57f:	fd cd 19    	std	cd19 <presto_master_clock>
    c582:	bd c9 07    	jsr	c907 <presto_restart_master_timer>
    c585:	bd c8 0a    	jsr	c80a <deliver_mail>
    c588:	38          	pulx
    c589:	38          	pulx
    c58a:	38          	pulx
    c58b:	5d          	tstb
    c58c:	27 38       	beq	c5c6 <presto_system_isr+0x73>
    c58e:	fe b8 0e    	ldx	b80e <current_tcb_p>
    c591:	ec 01       	ldd	1,x
    c593:	1a a3 03    	cpd	3,x
    c596:	22 05       	bhi	c59d <presto_system_isr+0x4a>
    c598:	1a a3 05    	cpd	5,x
    c59b:	24 03       	bcc	c5a0 <presto_system_isr+0x4d>
    c59d:	bd c2 db    	jsr	c2db <presto_fatal_error>
    c5a0:	fc b8 0e    	ldd	b80e <current_tcb_p>
    c5a3:	c3 00 01    	addd	#1 <_.tmp+0x1>
    c5a6:	fd b8 0a    	std	b80a <global_old_sp_p>
    c5a9:	bd c6 2c    	jsr	c62c <presto_next_tcb_to_run>
    c5ac:	8f          	xgdx
    c5ad:	ff b8 0e    	stx	b80e <current_tcb_p>
    c5b0:	e6 00       	ldab	0,x
    c5b2:	f7 b8 10    	stab	b810 <current_tid>
    c5b5:	1a ee 01    	ldy	1,x
    c5b8:	18 ff b8 08 	sty	b808 <global_new_sp>
    c5bc:	18 fe b8 0a 	ldy	b80a <global_old_sp_p>
    c5c0:	18 af 00    	sts	0,y
    c5c3:	be b8 08    	lds	b808 <global_new_sp>
    c5c6:	38          	pulx
    c5c7:	38          	pulx
    c5c8:	38          	pulx
    c5c9:	df 04       	stx	*4 <_.xy>
    c5cb:	38          	pulx
    c5cc:	df 02       	stx	*2 <_.z>
    c5ce:	38          	pulx
    c5cf:	df 00       	stx	*0 <_.tmp>
    c5d1:	3b          	rti

0000c5d2 <context_switch>:
    c5d2:	de 00       	ldx	*0 <_.tmp>
    c5d4:	3c          	pshx
    c5d5:	de 02       	ldx	*2 <_.z>
    c5d7:	3c          	pshx
    c5d8:	de 04       	ldx	*4 <_.xy>
    c5da:	3c          	pshx
    c5db:	fe b8 0e    	ldx	b80e <current_tcb_p>
    c5de:	ec 01       	ldd	1,x
    c5e0:	1a a3 03    	cpd	3,x
    c5e3:	22 05       	bhi	c5ea <context_switch+0x18>
    c5e5:	1a a3 05    	cpd	5,x
    c5e8:	24 03       	bcc	c5ed <context_switch+0x1b>
    c5ea:	bd c2 db    	jsr	c2db <presto_fatal_error>
    c5ed:	fc b8 0e    	ldd	b80e <current_tcb_p>
    c5f0:	c3 00 01    	addd	#1 <_.tmp+0x1>
    c5f3:	fd b8 0a    	std	b80a <global_old_sp_p>
    c5f6:	8d 34       	bsr	c62c <presto_next_tcb_to_run>
    c5f8:	8f          	xgdx
    c5f9:	ff b8 0e    	stx	b80e <current_tcb_p>
    c5fc:	e6 00       	ldab	0,x
    c5fe:	f7 b8 10    	stab	b810 <current_tid>
    c601:	ec 01       	ldd	1,x
    c603:	1a a3 03    	cpd	3,x
    c606:	22 05       	bhi	c60d <context_switch+0x3b>
    c608:	1a a3 05    	cpd	5,x
    c60b:	24 03       	bcc	c610 <context_switch+0x3e>
    c60d:	bd c2 db    	jsr	c2db <presto_fatal_error>
    c610:	fe b8 0e    	ldx	b80e <current_tcb_p>
    c613:	ec 01       	ldd	1,x
    c615:	fd b8 08    	std	b808 <global_new_sp>
    c618:	18 fe b8 0a 	ldy	b80a <global_old_sp_p>
    c61c:	18 af 00    	sts	0,y
    c61f:	be b8 08    	lds	b808 <global_new_sp>
    c622:	38          	pulx
    c623:	df 04       	stx	*4 <_.xy>
    c625:	38          	pulx
    c626:	df 02       	stx	*2 <_.z>
    c628:	38          	pulx
    c629:	df 00       	stx	*0 <_.tmp>
    c62b:	3b          	rti

0000c62c <presto_next_tcb_to_run>:
    c62c:	fe b8 11    	ldx	b811 <tcb_head_p>
    c62f:	27 0a       	beq	c63b <presto_next_tcb_to_run+0xf>
    c631:	ec 08       	ldd	8,x
    c633:	26 02       	bne	c637 <presto_next_tcb_to_run+0xb>
    c635:	8f          	xgdx
    c636:	39          	rts
    c637:	ee 0a       	ldx	10,x
    c639:	26 f6       	bne	c631 <presto_next_tcb_to_run+0x5>
    c63b:	bd c2 db    	jsr	c2db <presto_fatal_error>
    c63e:	4f          	clra
    c63f:	5f          	clrb
    c640:	39          	rts

0000c641 <presto_send_message>:
    c641:	34          	des
    c642:	30          	tsx
    c643:	e7 00       	stab	0,x
    c645:	18 30       	tsy
    c647:	cd ee 05    	ldx	5,y
    c64a:	3c          	pshx
    c64b:	cd ee 03    	ldx	3,y
    c64e:	3c          	pshx
    c64f:	ce 00 00    	ldx	#0 <_.tmp>
    c652:	3c          	pshx
    c653:	18 30       	tsy
    c655:	18 e6 06    	ldab	6,y
    c658:	8d 06       	bsr	c660 <presto_timer>
    c65a:	4f          	clra
    c65b:	38          	pulx
    c65c:	38          	pulx
    c65d:	38          	pulx
    c65e:	31          	ins
    c65f:	39          	rts

0000c660 <presto_timer>:
    c660:	30          	tsx
    c661:	8f          	xgdx
    c662:	c3 ff f1    	addd	#fff1 <normal_interrupt_vectors+0x31>
    c665:	8f          	xgdx
    c666:	35          	txs
    c667:	30          	tsx
    c668:	e7 04       	stab	4,x
    c66a:	0f          	sei
    c66b:	fc b8 16    	ldd	b816 <free_mail_p>
    c66e:	26 03       	bne	c673 <presto_timer+0x13>
    c670:	bd c2 db    	jsr	c2db <presto_fatal_error>
    c673:	18 30       	tsy
    c675:	18 e6 04    	ldab	4,y
    c678:	bd c8 b8    	jsr	c8b8 <tid_to_tcbptr>
    c67b:	30          	tsx
    c67c:	ed 07       	std	7,x
    c67e:	26 03       	bne	c683 <presto_timer+0x23>
    c680:	bd c2 db    	jsr	c2db <presto_fatal_error>
    c683:	fe b8 16    	ldx	b816 <free_mail_p>
    c686:	18 30       	tsy
    c688:	cd ef 05    	stx	5,y
    c68b:	ec 0d       	ldd	13,x
    c68d:	fd b8 16    	std	b816 <free_mail_p>
    c690:	fe b8 0e    	ldx	b80e <current_tcb_p>
    c693:	e6 00       	ldab	0,x
    c695:	18 ee 05    	ldy	5,y
    c698:	18 e7 02    	stab	2,y
    c69b:	30          	tsx
    c69c:	ec 07       	ldd	7,x
    c69e:	18 ed 03    	std	3,y
    c6a1:	1a ee 11    	ldy	17,x
    c6a4:	18 3c       	pshy
    c6a6:	fe cd 1b    	ldx	cd1b <presto_master_clock+0x2>
    c6a9:	3c          	pshx
    c6aa:	fe cd 19    	ldx	cd19 <presto_master_clock>
    c6ad:	3c          	pshx
    c6ae:	18 30       	tsy
    c6b0:	18 8f       	xgdy
    c6b2:	c3 00 06    	addd	#6 <_.xy+0x2>
    c6b5:	bd c1 7e    	jsr	c17e <clock_add>
    c6b8:	18 30       	tsy
    c6ba:	cd ee 0b    	ldx	11,y
    c6bd:	18 ec 08    	ldd	8,y
    c6c0:	ed 07       	std	7,x
    c6c2:	18 ec 06    	ldd	6,y
    c6c5:	ed 05       	std	5,x
    c6c7:	cd ee 0b    	ldx	11,y
    c6ca:	18 ec 1b    	ldd	27,y
    c6cd:	ed 0b       	std	11,x
    c6cf:	18 ec 19    	ldd	25,y
    c6d2:	ed 09       	std	9,x
    c6d4:	38          	pulx
    c6d5:	38          	pulx
    c6d6:	38          	pulx
    c6d7:	fe b8 18    	ldx	b818 <po_mail_p>
    c6da:	26 0c       	bne	c6e8 <presto_timer+0x88>
    c6dc:	18 30       	tsy
    c6de:	18 ee 05    	ldy	5,y
    c6e1:	18 ff b8 18 	sty	b818 <po_mail_p>
    c6e5:	7e c7 73    	jmp	c773 <.L61>
    c6e8:	18 30       	tsy
    c6ea:	ec 07       	ldd	7,x
    c6ec:	18 ed 0d    	std	13,y
    c6ef:	ec 05       	ldd	5,x
    c6f1:	18 ed 0b    	std	11,y
    c6f4:	18 ee 05    	ldy	5,y
    c6f7:	cd ee 07    	ldx	7,y
    c6fa:	3c          	pshx
    c6fb:	cd ee 05    	ldx	5,y
    c6fe:	3c          	pshx
    c6ff:	18 30       	tsy
    c701:	18 ec 11    	ldd	17,y
    c704:	cd ee 0f    	ldx	15,y
    c707:	bd c1 b0    	jsr	c1b0 <clock_compare>
    c70a:	38          	pulx
    c70b:	38          	pulx
    c70c:	5d          	tstb
    c70d:	2b 0f       	bmi	c71e <presto_timer+0xbe>
    c70f:	27 0d       	beq	c71e <presto_timer+0xbe>
    c711:	fc b8 18    	ldd	b818 <po_mail_p>
    c714:	30          	tsx
    c715:	ee 05       	ldx	5,x
    c717:	ed 0d       	std	13,x
    c719:	ff b8 18    	stx	b818 <po_mail_p>
    c71c:	20 58       	bra	c776 <.L61+0x3>
    c71e:	fc b8 18    	ldd	b818 <po_mail_p>
    c721:	20 34       	bra	c757 <presto_timer+0xf7>
    c723:	18 30       	tsy
    c725:	18 ee 09    	ldy	9,y
    c728:	cd ee 0d    	ldx	13,y
    c72b:	18 30       	tsy
    c72d:	ec 07       	ldd	7,x
    c72f:	18 ed 0d    	std	13,y
    c732:	ec 05       	ldd	5,x
    c734:	18 ed 0b    	std	11,y
    c737:	18 ee 05    	ldy	5,y
    c73a:	cd ee 07    	ldx	7,y
    c73d:	3c          	pshx
    c73e:	cd ee 05    	ldx	5,y
    c741:	3c          	pshx
    c742:	18 30       	tsy
    c744:	18 ec 11    	ldd	17,y
    c747:	cd ee 0f    	ldx	15,y
    c74a:	bd c1 b0    	jsr	c1b0 <clock_compare>
    c74d:	38          	pulx
    c74e:	38          	pulx
    c74f:	5d          	tstb
    c750:	2e 0f       	bgt	c761 <presto_timer+0x101>
    c752:	30          	tsx
    c753:	ee 09       	ldx	9,x
    c755:	ec 0d       	ldd	13,x
    c757:	30          	tsx
    c758:	ed 09       	std	9,x
    c75a:	18 8f       	xgdy
    c75c:	cd ee 0d    	ldx	13,y
    c75f:	26 c2       	bne	c723 <presto_timer+0xc3>
    c761:	30          	tsx
    c762:	ee 09       	ldx	9,x
    c764:	ec 0d       	ldd	13,x
    c766:	30          	tsx
    c767:	ee 05       	ldx	5,x
    c769:	ed 0d       	std	13,x
    c76b:	18 30       	tsy
    c76d:	cd ee 05    	ldx	5,y
    c770:	18 ee 09    	ldy	9,y

0000c773 <.L61>:
    c773:	cd ef 0d    	stx	13,y
    c776:	0e          	cli
    c777:	4f          	clra
    c778:	5f          	clrb
    c779:	30          	tsx
    c77a:	8f          	xgdx
    c77b:	c3 00 0f    	addd	#f <fatal+0x6>
    c77e:	8f          	xgdx
    c77f:	35          	txs
    c780:	39          	rts

0000c781 <presto_wait_for_message>:
    c781:	3c          	pshx
    c782:	3c          	pshx
    c783:	30          	tsx
    c784:	ed 00       	std	0,x
    c786:	0f          	sei
    c787:	fe b8 0e    	ldx	b80e <current_tcb_p>
    c78a:	ec 0c       	ldd	12,x
    c78c:	26 08       	bne	c796 <presto_wait_for_message+0x15>
    c78e:	18 ce 00 01 	ldy	#1 <_.tmp+0x1>
    c792:	1a ef 08    	sty	8,x
    c795:	3f          	swi
    c796:	0f          	sei
    c797:	fe b8 0e    	ldx	b80e <current_tcb_p>
    c79a:	ec 0c       	ldd	12,x
    c79c:	30          	tsx
    c79d:	ed 02       	std	2,x
    c79f:	26 03       	bne	c7a4 <presto_wait_for_message+0x23>
    c7a1:	bd c2 db    	jsr	c2db <presto_fatal_error>
    c7a4:	18 30       	tsy
    c7a6:	18 ee 02    	ldy	2,y
    c7a9:	18 ec 03    	ldd	3,y
    c7ac:	1a b3 b8 0e 	cpd	b80e <current_tcb_p>
    c7b0:	27 03       	beq	c7b5 <presto_wait_for_message+0x34>
    c7b2:	bd c2 db    	jsr	c2db <presto_fatal_error>
    c7b5:	fe b8 0e    	ldx	b80e <current_tcb_p>
    c7b8:	18 30       	tsy
    c7ba:	18 ec 02    	ldd	2,y
    c7bd:	1a a3 0e    	cpd	14,x
    c7c0:	26 08       	bne	c7ca <presto_wait_for_message+0x49>
    c7c2:	4f          	clra
    c7c3:	5f          	clrb
    c7c4:	ed 0c       	std	12,x
    c7c6:	ed 0e       	std	14,x
    c7c8:	20 11       	bra	c7db <presto_wait_for_message+0x5a>
    c7ca:	18 df 04    	sty	*4 <_.xy>
    c7cd:	18 30       	tsy
    c7cf:	18 ee 02    	ldy	2,y
    c7d2:	18 ee 0d    	ldy	13,y
    c7d5:	1a ef 0c    	sty	12,x
    c7d8:	18 de 04    	ldy	*4 <_.xy>
    c7db:	30          	tsx
    c7dc:	ee 00       	ldx	0,x
    c7de:	27 14       	beq	c7f4 <presto_wait_for_message+0x73>
    c7e0:	18 30       	tsy
    c7e2:	df 02       	stx	*2 <_.z>
    c7e4:	cd ee 02    	ldx	2,y
    c7e7:	ec 0b       	ldd	11,x
    c7e9:	18 de 02    	ldy	*2 <_.z>
    c7ec:	18 ed 02    	std	2,y
    c7ef:	ec 09       	ldd	9,x
    c7f1:	18 ed 00    	std	0,y
    c7f4:	fc b8 16    	ldd	b816 <free_mail_p>
    c7f7:	18 30       	tsy
    c7f9:	18 ee 02    	ldy	2,y
    c7fc:	18 ed 0d    	std	13,y
    c7ff:	18 ff b8 16 	sty	b816 <free_mail_p>
    c803:	0e          	cli
    c804:	cc 00 01    	ldd	#1 <_.tmp+0x1>
    c807:	38          	pulx
    c808:	38          	pulx
    c809:	39          	rts

0000c80a <deliver_mail>:
    c80a:	3c          	pshx
    c80b:	3c          	pshx
    c80c:	3c          	pshx
    c80d:	34          	des
    c80e:	30          	tsx
    c80f:	6f 00       	clr	0,x
    c811:	20 69       	bra	c87c <.L78+0x69>

0000c813 <.L78>:
    c813:	fe b8 18    	ldx	b818 <po_mail_p>
    c816:	dd 04       	std	*4 <_.xy>
    c818:	ec 03       	ldd	3,x
    c81a:	18 30       	tsy
    c81c:	dd 02       	std	*2 <_.z>
    c81e:	dc 04       	ldd	*4 <_.xy>
    c820:	de 02       	ldx	*2 <_.z>
    c822:	cd ef 01    	stx	1,y
    c825:	26 03       	bne	c82a <.L78+0x17>
    c827:	bd c2 db    	jsr	c2db <presto_fatal_error>
    c82a:	18 30       	tsy
    c82c:	18 ee 01    	ldy	1,y
    c82f:	18 6f 09    	clr	9,y
    c832:	18 6f 08    	clr	8,y
    c835:	18 fe b8 18 	ldy	b818 <po_mail_p>
    c839:	dd 04       	std	*4 <_.xy>
    c83b:	18 ec 0d    	ldd	13,y
    c83e:	fd b8 18    	std	b818 <po_mail_p>
    c841:	dc 04       	ldd	*4 <_.xy>
    c843:	30          	tsx
    c844:	ee 01       	ldx	1,x
    c846:	ee 0c       	ldx	12,x
    c848:	26 0a       	bne	c854 <.L78+0x41>
    c84a:	30          	tsx
    c84b:	ee 01       	ldx	1,x
    c84d:	1a ef 0c    	sty	12,x
    c850:	df 02       	stx	*2 <_.z>
    c852:	20 14       	bra	c868 <.L78+0x55>
    c854:	18 df 04    	sty	*4 <_.xy>
    c857:	18 30       	tsy
    c859:	18 ee 01    	ldy	1,y
    c85c:	cd ee 0e    	ldx	14,y
    c85f:	18 df 02    	sty	*2 <_.z>
    c862:	18 de 04    	ldy	*4 <_.xy>
    c865:	1a ef 0d    	sty	13,x
    c868:	df 04       	stx	*4 <_.xy>
    c86a:	de 02       	ldx	*2 <_.z>
    c86c:	1a ef 0e    	sty	14,x
    c86f:	de 04       	ldx	*4 <_.xy>
    c871:	18 6f 0e    	clr	14,y
    c874:	18 6f 0d    	clr	13,y
    c877:	18 30       	tsy
    c879:	18 6c 00    	inc	0,y
    c87c:	fe b8 18    	ldx	b818 <po_mail_p>
    c87f:	27 2c       	beq	c8ad <.L78+0x9a>
    c881:	18 30       	tsy
    c883:	ec 07       	ldd	7,x
    c885:	18 ed 05    	std	5,y
    c888:	ec 05       	ldd	5,x
    c88a:	18 ed 03    	std	3,y
    c88d:	fe cd 1b    	ldx	cd1b <presto_master_clock+0x2>
    c890:	3c          	pshx
    c891:	fe cd 19    	ldx	cd19 <presto_master_clock>
    c894:	3c          	pshx
    c895:	18 30       	tsy
    c897:	18 ec 09    	ldd	9,y
    c89a:	cd ee 07    	ldx	7,y
    c89d:	bd c1 b0    	jsr	c1b0 <clock_compare>
    c8a0:	38          	pulx
    c8a1:	38          	pulx
    c8a2:	5d          	tstb
    c8a3:	2a 03       	bpl	c8a8 <.L78+0x95>
    c8a5:	7e c8 13    	jmp	c813 <.L78>
    c8a8:	26 03       	bne	c8ad <.L78+0x9a>
    c8aa:	7e c8 13    	jmp	c813 <.L78>
    c8ad:	30          	tsx
    c8ae:	4f          	clra
    c8af:	e6 00       	ldab	0,x
    c8b1:	38          	pulx
    c8b2:	38          	pulx
    c8b3:	38          	pulx
    c8b4:	31          	ins
    c8b5:	39          	rts

0000c8b6 <idle_task>:
    c8b6:	20 fe       	bra	c8b6 <idle_task>

0000c8b8 <tid_to_tcbptr>:
    c8b8:	3c          	pshx
    c8b9:	34          	des
    c8ba:	30          	tsx
    c8bb:	e7 00       	stab	0,x
    c8bd:	c1 05       	cmpb	#5
    c8bf:	23 03       	bls	c8c4 <tid_to_tcbptr+0xc>
    c8c1:	bd c2 db    	jsr	c2db <presto_fatal_error>
    c8c4:	30          	tsx
    c8c5:	4f          	clra
    c8c6:	e6 00       	ldab	0,x
    c8c8:	05          	asld
    c8c9:	05          	asld
    c8ca:	05          	asld
    c8cb:	05          	asld
    c8cc:	ed 01       	std	1,x
    c8ce:	c3 cd 5c    	addd	#cd5c <tcb_list+0x8>
    c8d1:	8f          	xgdx
    c8d2:	ee 00       	ldx	0,x
    c8d4:	8c 00 02    	cpx	#2 <_.z>
    c8d7:	26 04       	bne	c8dd <tid_to_tcbptr+0x25>
    c8d9:	4f          	clra
    c8da:	5f          	clrb
    c8db:	20 06       	bra	c8e3 <tid_to_tcbptr+0x2b>
    c8dd:	30          	tsx
    c8de:	ec 01       	ldd	1,x
    c8e0:	c3 cd 54    	addd	#cd54 <tcb_list>
    c8e3:	38          	pulx
    c8e4:	31          	ins
    c8e5:	39          	rts

0000c8e6 <presto_start_master_timer>:
    c8e6:	ce 10 0e    	ldx	#100e <_io_ports+0xe>
    c8e9:	ec 00       	ldd	0,x
    c8eb:	c3 0d 40    	addd	#d40 <fatal+0xd37>
    c8ee:	ce 10 18    	ldx	#1018 <_io_ports+0x18>
    c8f1:	ed 00       	std	0,x
    c8f3:	ce 10 22    	ldx	#1022 <_io_ports+0x22>
    c8f6:	1c 00 40    	bset	0,x #$40
    c8f9:	ce 10 23    	ldx	#1023 <_io_ports+0x23>
    c8fc:	c6 40       	ldab	#64
    c8fe:	e7 00       	stab	0,x
    c900:	ce 10 20    	ldx	#1020 <_io_ports+0x20>
    c903:	1d 00 c0    	bclr	0,x #$c0
    c906:	39          	rts

0000c907 <presto_restart_master_timer>:
    c907:	ce 10 18    	ldx	#1018 <_io_ports+0x18>
    c90a:	ec 00       	ldd	0,x
    c90c:	c3 0d 40    	addd	#d40 <fatal+0xd37>
    c90f:	ed 00       	std	0,x
    c911:	ce 10 23    	ldx	#1023 <_io_ports+0x23>
    c914:	c6 40       	ldab	#64
    c916:	e7 00       	stab	0,x
    c918:	39          	rts
Disassembly of section .install0:

00000000 <_start>:
   0:	8e b5 ff    	lds	#b5ff <_stack>
Disassembly of section .install2:

00000003 <.install2>:
   3:	bd c1 e3    	jsr	c1e3 <__premain>
Disassembly of section .install4:

00000006 <fatal-0x3>:
   6:	bd c0 fa    	jsr	c0fa <main>

00000009 <fatal>:
   9:	bd c2 da    	jsr	c2da <exit>
   c:	20 fb       	bra	9 <fatal>
