
presto.elf:     file format elf32-m68hc11

Disassembly of section .text:

00008000 <assert_lights>:
    8000:	f6 c8 35    	ldab	c835 <light1>
    8003:	fa c8 36    	orab	c836 <light2>
    8006:	fa c8 37    	orab	c837 <light3>
    8009:	fa c8 38    	orab	c838 <light4>

0000800c <.LM3>:
    800c:	ce 7f ff    	ldx	#7fff <__debug_end+0x3ffa>
    800f:	ca f0       	orab	#240
    8011:	e7 00       	stab	0,x

00008013 <.LM4>:
    8013:	39          	rts

00008014 <One>:
    8014:	3c          	pshx
    8015:	3c          	pshx

00008016 <.LM6>:
    8016:	18 30       	tsy
    8018:	4f          	clra
    8019:	5f          	clrb
    801a:	18 ed 02    	std	2,y
    801d:	18 ed 00    	std	0,y

00008020 <.LM7>:
    8020:	37          	pshb
    8021:	36          	psha
    8022:	18 ec 00    	ldd	0,y
    8025:	37          	pshb
    8026:	36          	psha
    8027:	ce 03 e8    	ldx	#3e8 <.Ldebug_abbrev0+0x30>
    802a:	3c          	pshx
    802b:	3c          	pshx
    802c:	f6 c8 31    	ldab	c831 <__bss_end>
    802f:	bd 84 b3    	jsr	84b3 <presto_repeating_timer>

00008032 <.LM8>:
    8032:	38          	pulx
    8033:	38          	pulx
    8034:	38          	pulx
    8035:	38          	pulx

00008036 <.L6>:
    8036:	8f          	xgdx
    8037:	30          	tsx
    8038:	8f          	xgdx
    8039:	bd 84 ea    	jsr	84ea <presto_wait_for_message>

0000803c <.LM10>:
    803c:	f6 c8 35    	ldab	c835 <light1>
    803f:	c8 01       	eorb	#1
    8041:	f7 c8 35    	stab	c835 <light1>

00008044 <.LM11>:
    8044:	8d ba       	bsr	8000 <assert_lights>
    8046:	20 ee       	bra	8036 <.L6>

00008048 <Two>:
    8048:	3c          	pshx
    8049:	3c          	pshx

0000804a <.LM14>:
    804a:	18 30       	tsy
    804c:	4f          	clra
    804d:	5f          	clrb
    804e:	18 ed 02    	std	2,y
    8051:	18 ed 00    	std	0,y

00008054 <.LM15>:
    8054:	37          	pshb
    8055:	36          	psha
    8056:	18 ec 00    	ldd	0,y
    8059:	37          	pshb
    805a:	36          	psha
    805b:	ce 02 bc    	ldx	#2bc <.Ldebug_abbrev0+0xbf>
    805e:	3c          	pshx
    805f:	3c          	pshx
    8060:	f6 c8 32    	ldab	c832 <two_tid>
    8063:	bd 84 b3    	jsr	84b3 <presto_repeating_timer>

00008066 <.L12>:
    8066:	18 38       	puly
    8068:	18 38       	puly
    806a:	18 38       	puly
    806c:	18 38       	puly

0000806e <.LM17>:
    806e:	8f          	xgdx
    806f:	30          	tsx
    8070:	8f          	xgdx
    8071:	bd 84 ea    	jsr	84ea <presto_wait_for_message>

00008074 <.LM18>:
    8074:	f6 c8 36    	ldab	c836 <light2>
    8077:	c8 02       	eorb	#2
    8079:	f7 c8 36    	stab	c836 <light2>

0000807c <.LM19>:
    807c:	8d 82       	bsr	8000 <assert_lights>

0000807e <.LM20>:
    807e:	18 30       	tsy
    8080:	18 ec 02    	ldd	2,y
    8083:	37          	pshb
    8084:	36          	psha
    8085:	18 ec 00    	ldd	0,y
    8088:	37          	pshb
    8089:	36          	psha
    808a:	f6 c8 31    	ldab	c831 <__bss_end>
    808d:	bd 84 61    	jsr	8461 <presto_send_message>

00008090 <.LM21>:
    8090:	18 30       	tsy
    8092:	18 ec 06    	ldd	6,y
    8095:	37          	pshb
    8096:	36          	psha
    8097:	18 ec 04    	ldd	4,y
    809a:	37          	pshb
    809b:	36          	psha
    809c:	f6 c8 33    	ldab	c833 <three_tid>
    809f:	bd 84 61    	jsr	8461 <presto_send_message>
    80a2:	20 c2       	bra	8066 <.L12>

000080a4 <Three>:
    80a4:	3c          	pshx
    80a5:	3c          	pshx

000080a6 <.LM24>:
    80a6:	30          	tsx
    80a7:	4f          	clra
    80a8:	5f          	clrb
    80a9:	ed 02       	std	2,x
    80ab:	ed 00       	std	0,x

000080ad <.L17>:
    80ad:	8f          	xgdx
    80ae:	30          	tsx
    80af:	8f          	xgdx
    80b0:	bd 84 ea    	jsr	84ea <presto_wait_for_message>

000080b3 <.LM26>:
    80b3:	f6 c8 37    	ldab	c837 <light3>
    80b6:	c8 04       	eorb	#4
    80b8:	f7 c8 37    	stab	c837 <light3>

000080bb <.LM27>:
    80bb:	bd 80 00    	jsr	8000 <assert_lights>
    80be:	20 ed       	bra	80ad <.L17>

000080c0 <Four>:
    80c0:	3c          	pshx
    80c1:	3c          	pshx

000080c2 <.LM30>:
    80c2:	18 30       	tsy
    80c4:	4f          	clra
    80c5:	5f          	clrb
    80c6:	18 ed 02    	std	2,y
    80c9:	18 ed 00    	std	0,y

000080cc <.LM31>:
    80cc:	37          	pshb
    80cd:	36          	psha
    80ce:	18 ec 00    	ldd	0,y
    80d1:	37          	pshb
    80d2:	36          	psha
    80d3:	f6 c8 34    	ldab	c834 <four_tid>
    80d6:	bd 84 61    	jsr	8461 <presto_send_message>

000080d9 <.LM32>:
    80d9:	38          	pulx
    80da:	38          	pulx

000080db <.L22>:
    80db:	8f          	xgdx
    80dc:	30          	tsx
    80dd:	8f          	xgdx
    80de:	bd 84 ea    	jsr	84ea <presto_wait_for_message>

000080e1 <.LM34>:
    80e1:	f6 c8 38    	ldab	c838 <light4>
    80e4:	c8 08       	eorb	#8
    80e6:	f7 c8 38    	stab	c838 <light4>

000080e9 <.LM35>:
    80e9:	bd 80 00    	jsr	8000 <assert_lights>

000080ec <.LM36>:
    80ec:	18 30       	tsy
    80ee:	18 ec 02    	ldd	2,y
    80f1:	37          	pshb
    80f2:	36          	psha
    80f3:	18 ec 00    	ldd	0,y
    80f6:	37          	pshb
    80f7:	36          	psha
    80f8:	f6 c8 33    	ldab	c833 <three_tid>
    80fb:	bd 84 61    	jsr	8461 <presto_send_message>

000080fe <.LM37>:
    80fe:	18 30       	tsy
    8100:	18 ec 06    	ldd	6,y
    8103:	37          	pshb
    8104:	36          	psha
    8105:	18 ec 04    	ldd	4,y
    8108:	37          	pshb
    8109:	36          	psha
    810a:	f6 c8 34    	ldab	c834 <four_tid>
    810d:	bd 84 61    	jsr	8461 <presto_send_message>
    8110:	18 38       	puly
    8112:	18 38       	puly
    8114:	18 38       	puly
    8116:	18 38       	puly
    8118:	20 c1       	bra	80db <.L22>

0000811a <main>:
    811a:	5f          	clrb
    811b:	f7 c8 31    	stab	c831 <__bss_end>

0000811e <.LM41>:
    811e:	f7 c8 32    	stab	c832 <two_tid>

00008121 <.LM42>:
    8121:	f7 c8 33    	stab	c833 <three_tid>

00008124 <.LM43>:
    8124:	f7 c8 34    	stab	c834 <four_tid>

00008127 <.LM44>:
    8127:	f7 c8 35    	stab	c835 <light1>

0000812a <.LM45>:
    812a:	f7 c8 36    	stab	c836 <light2>

0000812d <.LM46>:
    812d:	f7 c8 37    	stab	c837 <light3>

00008130 <.LM47>:
    8130:	f7 c8 38    	stab	c838 <light4>

00008133 <.LM48>:
    8133:	bd 81 a4    	jsr	81a4 <presto_init>

00008136 <.LM49>:
    8136:	c6 23       	ldab	#35
    8138:	37          	pshb
    8139:	34          	des
    813a:	18 ce 01 00 	ldy	#100 <__debug_start>
    813e:	18 3c       	pshy
    8140:	ce c0 00    	ldx	#c000 <__specvect_end>
    8143:	3c          	pshx
    8144:	cc 80 14    	ldd	#8014 <One>
    8147:	bd 82 81    	jsr	8281 <presto_create_task>
    814a:	f7 c8 31    	stab	c831 <__bss_end>

0000814d <.LM50>:
    814d:	c6 1e       	ldab	#30
    814f:	37          	pshb
    8150:	34          	des
    8151:	18 ce 01 00 	ldy	#100 <__debug_start>
    8155:	18 3c       	pshy
    8157:	ce c3 00    	ldx	#c300 <task_two_stack>
    815a:	3c          	pshx
    815b:	cc 80 48    	ldd	#8048 <Two>
    815e:	bd 82 81    	jsr	8281 <presto_create_task>
    8161:	f7 c8 32    	stab	c832 <two_tid>

00008164 <.LM51>:
    8164:	c6 14       	ldab	#20
    8166:	37          	pshb
    8167:	34          	des
    8168:	18 ce 01 00 	ldy	#100 <__debug_start>
    816c:	18 3c       	pshy
    816e:	ce c2 00    	ldx	#c200 <task_three_stack>
    8171:	3c          	pshx
    8172:	cc 80 a4    	ldd	#80a4 <Three>
    8175:	bd 82 81    	jsr	8281 <presto_create_task>
    8178:	f7 c8 33    	stab	c833 <three_tid>

0000817b <.LM52>:
    817b:	c6 05       	ldab	#5
    817d:	37          	pshb
    817e:	34          	des
    817f:	18 ce 01 00 	ldy	#100 <__debug_start>
    8183:	18 3c       	pshy
    8185:	ce c1 00    	ldx	#c100 <task_four_stack>
    8188:	3c          	pshx
    8189:	cc 80 c0    	ldd	#80c0 <Four>
    818c:	bd 82 81    	jsr	8281 <presto_create_task>
    818f:	f7 c8 34    	stab	c834 <four_tid>

00008192 <.LM53>:
    8192:	bd 84 21    	jsr	8421 <presto_start_scheduler>

00008195 <.LM54>:
    8195:	4f          	clra
    8196:	5f          	clrb
    8197:	bd 8a de    	jsr	8ade <presto_fatal_error>

0000819a <.LM55>:
    819a:	4f          	clra
    819b:	5f          	clrb
    819c:	30          	tsx
    819d:	8f          	xgdx
    819e:	c3 00 18    	addd	#18 <_.xy+0x14>
    81a1:	8f          	xgdx
    81a2:	35          	txs

000081a3 <.LBE7>:
    81a3:	39          	rts

000081a4 <presto_init>:
    81a4:	3c          	pshx
    81a5:	3c          	pshx
    81a6:	34          	des

000081a7 <.LM2>:
    81a7:	7d c8 3f    	tst	c83f <presto_initialized>
    81aa:	27 03       	beq	81af <.LM3>
    81ac:	7e 82 7d    	jmp	827d <.L1>

000081af <.LM3>:
    81af:	cc c4 00    	ldd	#c400 <presto_master_clock>
    81b2:	bd 8a 37    	jsr	8a37 <clock_reset>

000081b5 <.LM4>:
    81b5:	30          	tsx
    81b6:	6f 00       	clr	0,x

000081b8 <.L7>:
    81b8:	18 30       	tsy
    81ba:	4f          	clra
    81bb:	18 e6 00    	ldab	0,y
    81be:	05          	asld
    81bf:	05          	asld
    81c0:	05          	asld
    81c1:	05          	asld
    81c2:	18 ed 03    	std	3,y
    81c5:	dd 00       	std	*0 <_.tmp>
    81c7:	18 de 00    	ldy	*0 <_.tmp>
    81ca:	c3 c4 49    	addd	#c449 <tcb_list+0xa>
    81cd:	18 8f       	xgdy
    81cf:	37          	pshb
    81d0:	36          	psha
    81d1:	38          	pulx
    81d2:	c3 c4 4f    	addd	#c44f <tcb_list+0x10>
    81d5:	8f          	xgdx
    81d6:	cd ef 00    	stx	0,y

000081d9 <.LM6>:
    81d9:	c3 c4 3f    	addd	#c43f <tcb_list>
    81dc:	8f          	xgdx
    81dd:	18 30       	tsy
    81df:	18 e6 00    	ldab	0,y
    81e2:	e7 00       	stab	0,x

000081e4 <.LM7>:
    81e4:	18 ec 03    	ldd	3,y
    81e7:	c3 c4 47    	addd	#c447 <tcb_list+0x8>
    81ea:	ce 00 02    	ldx	#2 <_.z>
    81ed:	dd 02       	std	*2 <_.z>
    81ef:	18 df 04    	sty	*4 <_.xy>
    81f2:	18 de 02    	ldy	*2 <_.z>
    81f5:	cd ef 00    	stx	0,y
    81f8:	18 de 04    	ldy	*4 <_.xy>

000081fb <.LM8>:
    81fb:	18 6c 00    	inc	0,y
    81fe:	18 e6 00    	ldab	0,y
    8201:	c1 0c       	cmpb	#12
    8203:	23 b3       	bls	81b8 <.L7>

00008205 <.LM9>:
    8205:	4f          	clra
    8206:	5f          	clrb
    8207:	fd c5 09    	std	c509 <tcb_list+0xca>

0000820a <.LM10>:
    820a:	18 ce c4 3f 	ldy	#c43f <tcb_list>
    820e:	18 ff c8 3d 	sty	c83d <free_tcb_p>

00008212 <.LM11>:
    8212:	30          	tsx
    8213:	e7 00       	stab	0,x

00008215 <.L12>:
    8215:	c6 14       	ldab	#20
    8217:	30          	tsx
    8218:	a6 00       	ldaa	0,x
    821a:	3d          	mul
    821b:	ed 01       	std	1,x
    821d:	37          	pshb
    821e:	36          	psha
    821f:	38          	pulx
    8220:	c3 c5 21    	addd	#c521 <mail_list+0x12>
    8223:	8f          	xgdx
    8224:	18 df 04    	sty	*4 <_.xy>
    8227:	18 30       	tsy
    8229:	c3 c5 23    	addd	#c523 <mail_list+0x14>
    822c:	ed 00       	std	0,x

0000822e <.LM13>:
    822e:	18 df 02    	sty	*2 <_.z>
    8231:	18 ee 01    	ldy	1,y
    8234:	18 8f       	xgdy
    8236:	c3 c5 0f    	addd	#c50f <mail_list>
    8239:	18 8f       	xgdy
    823b:	de 02       	ldx	*2 <_.z>
    823d:	e6 00       	ldab	0,x
    823f:	18 e7 00    	stab	0,y

00008242 <.LM14>:
    8242:	5c          	incb
    8243:	e7 00       	stab	0,x
    8245:	c1 27       	cmpb	#39
    8247:	23 cc       	bls	8215 <.L12>

00008249 <.LM15>:
    8249:	18 ce 00 00 	ldy	#0 <_.tmp>
    824d:	18 ff c8 2d 	sty	c82d <mail_list+0x31e>

00008251 <.LM16>:
    8251:	cc c5 0f    	ldd	#c50f <mail_list>
    8254:	fd c8 40    	std	c840 <free_mail_p>

00008257 <.LM17>:
    8257:	c6 01       	ldab	#1
    8259:	f7 c8 3f    	stab	c83f <presto_initialized>

0000825c <.LM18>:
    825c:	18 8f       	xgdy
    825e:	37          	pshb
    825f:	18 8f       	xgdy
    8261:	34          	des
    8262:	18 ce 00 32 	ldy	#32 <_.xy+0x2e>
    8266:	18 3c       	pshy
    8268:	ce c4 0b    	ldx	#c40b <idle_stack>
    826b:	3c          	pshx
    826c:	cc 89 1b    	ldd	#891b <idle_task>
    826f:	8d 10       	bsr	8281 <presto_create_task>
    8271:	f7 c4 0a    	stab	c40a <idle_tid>

00008274 <.LM19>:
    8274:	bd 89 1d    	jsr	891d <tid_to_tcbptr>
    8277:	fd c4 3d    	std	c43d <idle_tcb_p>

0000827a <.LBE2>:
    827a:	38          	pulx
    827b:	38          	pulx
    827c:	38          	pulx

0000827d <.L1>:
    827d:	38          	pulx
    827e:	38          	pulx
    827f:	31          	ins
    8280:	39          	rts

00008281 <presto_create_task>:
    8281:	30          	tsx
    8282:	8f          	xgdx
    8283:	c3 ff f6    	addd	#fff6 <__normvect_start+0x20>
    8286:	8f          	xgdx
    8287:	35          	txs
    8288:	30          	tsx
    8289:	ed 00       	std	0,x

0000828b <.LBB3>:
    828b:	f6 c8 3f    	ldab	c83f <presto_initialized>
    828e:	26 06       	bne	8296 <.L16>

00008290 <.LM23>:
    8290:	cc 00 02    	ldd	#2 <_.z>
    8293:	bd 8a de    	jsr	8ade <presto_fatal_error>

00008296 <.L16>:
    8296:	fc c8 3d    	ldd	c83d <free_tcb_p>
    8299:	26 0c       	bne	82a7 <.L17>

0000829b <.LM25>:
    829b:	cc 00 08    	ldd	#8 <_.xy+0x4>
    829e:	bd 8a de    	jsr	8ade <presto_fatal_error>

000082a1 <.LM26>:
    82a1:	cc ff ff    	ldd	#ffff <__normvect_start+0x29>
    82a4:	7e 84 19    	jmp	8419 <.L15>

000082a7 <.L17>:
    82a7:	07          	tpa
    82a8:	0f          	sei
    82a9:	18 30       	tsy
    82ab:	18 ed 02    	std	2,y

000082ae <.LM28>:
    82ae:	18 df 04    	sty	*4 <_.xy>
    82b1:	18 fe c8 3d 	ldy	c83d <free_tcb_p>

000082b5 <.LM29>:
    82b5:	cd ee 0a    	ldx	10,y
    82b8:	ff c8 3d    	stx	c83d <free_tcb_p>

000082bb <.LM30>:
    82bb:	18 df 02    	sty	*2 <_.z>
    82be:	18 de 04    	ldy	*4 <_.xy>
    82c1:	18 ec 0c    	ldd	12,y
    82c4:	18 e3 0e    	addd	14,y
    82c7:	18 ed 06    	std	6,y
    82ca:	8f          	xgdx
    82cb:	09          	dex
    82cc:	18 de 02    	ldy	*2 <_.z>
    82cf:	cd ef 03    	stx	3,y

000082d2 <.LM31>:
    82d2:	18 de 04    	ldy	*4 <_.xy>
    82d5:	18 ec 0c    	ldd	12,y
    82d8:	df 04       	stx	*4 <_.xy>
    82da:	de 02       	ldx	*2 <_.z>
    82dc:	ed 05       	std	5,x

000082de <.LM32>:
    82de:	18 e6 11    	ldab	17,y
    82e1:	e7 07       	stab	7,x

000082e3 <.LM33>:
    82e3:	18 ce 00 00 	ldy	#0 <_.tmp>
    82e7:	1a ef 08    	sty	8,x

000082ea <.LM34>:
    82ea:	1a ef 0c    	sty	12,x

000082ed <.LM35>:
    82ed:	1a ef 0e    	sty	14,x

000082f0 <.LM36>:
    82f0:	18 30       	tsy
    82f2:	18 e6 01    	ldab	1,y
    82f5:	de 04       	ldx	*4 <_.xy>
    82f7:	e7 00       	stab	0,x
    82f9:	cd ee 06    	ldx	6,y
    82fc:	09          	dex
    82fd:	09          	dex

000082fe <.LM37>:
    82fe:	4f          	clra
    82ff:	18 e6 00    	ldab	0,y
    8302:	e7 00       	stab	0,x
    8304:	cd ee 06    	ldx	6,y
    8307:	09          	dex
    8308:	09          	dex
    8309:	09          	dex

0000830a <.LM38>:
    830a:	c6 66       	ldab	#102
    830c:	e7 00       	stab	0,x
    830e:	cd ee 06    	ldx	6,y
    8311:	09          	dex
    8312:	09          	dex
    8313:	09          	dex
    8314:	09          	dex

00008315 <.LM39>:
    8315:	c6 55       	ldab	#85
    8317:	e7 00       	stab	0,x
    8319:	cd ee 06    	ldx	6,y
    831c:	8f          	xgdx
    831d:	c3 ff fb    	addd	#fffb <__normvect_start+0x25>
    8320:	8f          	xgdx

00008321 <.LM40>:
    8321:	c6 44       	ldab	#68
    8323:	e7 00       	stab	0,x
    8325:	cd ee 06    	ldx	6,y
    8328:	8f          	xgdx
    8329:	c3 ff fa    	addd	#fffa <__normvect_start+0x24>
    832c:	8f          	xgdx

0000832d <.LM41>:
    832d:	c6 33       	ldab	#51
    832f:	e7 00       	stab	0,x
    8331:	cd ee 06    	ldx	6,y
    8334:	8f          	xgdx
    8335:	c3 ff f9    	addd	#fff9 <__normvect_start+0x23>
    8338:	8f          	xgdx

00008339 <.LM42>:
    8339:	c6 11       	ldab	#17
    833b:	e7 00       	stab	0,x
    833d:	cd ee 06    	ldx	6,y
    8340:	8f          	xgdx
    8341:	c3 ff f8    	addd	#fff8 <__normvect_start+0x22>
    8344:	8f          	xgdx

00008345 <.LM43>:
    8345:	c6 22       	ldab	#34
    8347:	e7 00       	stab	0,x
    8349:	cd ee 06    	ldx	6,y
    834c:	8f          	xgdx
    834d:	c3 ff f7    	addd	#fff7 <__normvect_start+0x21>
    8350:	8f          	xgdx

00008351 <.LM44>:
    8351:	5f          	clrb
    8352:	e7 00       	stab	0,x
    8354:	cd ee 06    	ldx	6,y
    8357:	8f          	xgdx
    8358:	c3 ff f6    	addd	#fff6 <__normvect_start+0x20>
    835b:	8f          	xgdx

0000835c <.LM45>:
    835c:	c6 bb       	ldab	#187
    835e:	e7 00       	stab	0,x
    8360:	cd ee 06    	ldx	6,y
    8363:	8f          	xgdx
    8364:	c3 ff f5    	addd	#fff5 <__normvect_start+0x1f>
    8367:	8f          	xgdx

00008368 <.LM46>:
    8368:	c6 aa       	ldab	#170
    836a:	e7 00       	stab	0,x
    836c:	cd ee 06    	ldx	6,y
    836f:	8f          	xgdx
    8370:	c3 ff f4    	addd	#fff4 <__normvect_start+0x1e>
    8373:	8f          	xgdx

00008374 <.LM47>:
    8374:	c6 dd       	ldab	#221
    8376:	e7 00       	stab	0,x
    8378:	cd ee 06    	ldx	6,y
    837b:	8f          	xgdx
    837c:	c3 ff f3    	addd	#fff3 <__normvect_start+0x1d>
    837f:	8f          	xgdx

00008380 <.LM48>:
    8380:	c6 cc       	ldab	#204
    8382:	e7 00       	stab	0,x
    8384:	cd ee 06    	ldx	6,y
    8387:	8f          	xgdx
    8388:	c3 ff f2    	addd	#fff2 <__normvect_start+0x1c>
    838b:	8f          	xgdx

0000838c <.LM49>:
    838c:	c6 ff       	ldab	#255
    838e:	e7 00       	stab	0,x
    8390:	cd ee 06    	ldx	6,y
    8393:	8f          	xgdx
    8394:	c3 ff f1    	addd	#fff1 <__normvect_start+0x1b>
    8397:	8f          	xgdx

00008398 <.LM50>:
    8398:	c6 ee       	ldab	#238
    839a:	e7 00       	stab	0,x
    839c:	cd ee 06    	ldx	6,y
    839f:	8f          	xgdx
    83a0:	c3 ff f0    	addd	#fff0 <__normvect_start+0x1a>
    83a3:	8f          	xgdx

000083a4 <.LM51>:
    83a4:	18 de 02    	ldy	*2 <_.z>
    83a7:	cd ef 01    	stx	1,y

000083aa <.LM52>:
    83aa:	fe c8 3b    	ldx	c83b <tcb_head_p>
    83ad:	26 0b       	bne	83ba <.L18>

000083af <.LM53>:
    83af:	de 02       	ldx	*2 <_.z>
    83b1:	ff c8 3b    	stx	c83b <tcb_head_p>

000083b4 <.LM54>:
    83b4:	4f          	clra
    83b5:	5f          	clrb
    83b6:	ed 0a       	std	10,x
    83b8:	20 4d       	bra	8407 <.L19>

000083ba <.L18>:
    83ba:	fe c8 3b    	ldx	c83b <tcb_head_p>
    83bd:	df 04       	stx	*4 <_.xy>
    83bf:	de 02       	ldx	*2 <_.z>
    83c1:	e6 07       	ldab	7,x
    83c3:	de 04       	ldx	*4 <_.xy>
    83c5:	e1 07       	cmpb	7,x
    83c7:	23 12       	bls	83db <.L20>

000083c9 <.LM56>:
    83c9:	18 df 04    	sty	*4 <_.xy>
    83cc:	18 de 02    	ldy	*2 <_.z>
    83cf:	cd ef 0a    	stx	10,y

000083d2 <.LM57>:
    83d2:	18 ff c8 3b 	sty	c83b <tcb_head_p>
    83d6:	18 de 04    	ldy	*4 <_.xy>
    83d9:	20 2c       	bra	8407 <.L19>

000083db <.L20>:
    83db:	18 fe c8 3b 	ldy	c83b <tcb_head_p>

000083df <.LM59>:
    83df:	cd ee 0a    	ldx	10,y
    83e2:	27 15       	beq	83f9 <.L23>
    83e4:	de 02       	ldx	*2 <_.z>
    83e6:	e6 07       	ldab	7,x

000083e8 <.L26>:
    83e8:	cd ee 0a    	ldx	10,y
    83eb:	e1 07       	cmpb	7,x
    83ed:	22 0a       	bhi	83f9 <.L23>

000083ef <.LM61>:
    83ef:	df 00       	stx	*0 <_.tmp>
    83f1:	18 de 00    	ldy	*0 <_.tmp>
    83f4:	cd ee 0a    	ldx	10,y
    83f7:	26 ef       	bne	83e8 <.L26>

000083f9 <.L23>:
    83f9:	18 ec 0a    	ldd	10,y
    83fc:	df 04       	stx	*4 <_.xy>
    83fe:	de 02       	ldx	*2 <_.z>
    8400:	ed 0a       	std	10,x

00008402 <.LM63>:
    8402:	cd ef 0a    	stx	10,y

00008405 <.LBE4>:
    8405:	de 04       	ldx	*4 <_.xy>

00008407 <.L19>:
    8407:	18 30       	tsy
    8409:	18 ec 02    	ldd	2,y
    840c:	06          	tap

0000840d <.LM65>:
    840d:	df 04       	stx	*4 <_.xy>
    840f:	de 02       	ldx	*2 <_.z>
    8411:	4f          	clra
    8412:	e6 00       	ldab	0,x
    8414:	2a 01       	bpl	8417 <.L27>
    8416:	4a          	deca

00008417 <.L27>:
    8417:	de 04       	ldx	*4 <_.xy>

00008419 <.L15>:
    8419:	30          	tsx
    841a:	8f          	xgdx
    841b:	c3 00 0a    	addd	#a <_.xy+0x6>
    841e:	8f          	xgdx
    841f:	35          	txs
    8420:	39          	rts

00008421 <presto_start_scheduler>:
    8421:	0f          	sei

00008422 <.LM69>:
    8422:	ce 85 de    	ldx	#85de <systimer_ISR>
    8425:	3c          	pshx
    8426:	c6 08       	ldab	#8
    8428:	bd 8b 47    	jsr	8b47 <set_interrupt>

0000842b <.LM70>:
    842b:	18 ce 86 06 	ldy	#8606 <context_switch_isr>
    842f:	18 3c       	pshy
    8431:	c6 10       	ldab	#16
    8433:	bd 8b 47    	jsr	8b47 <set_interrupt>

00008436 <.LM71>:
    8436:	bd 85 ab    	jsr	85ab <systimer_Start>

00008439 <.LM72>:
    8439:	fe c8 3b    	ldx	c83b <tcb_head_p>
    843c:	ff c8 39    	stx	c839 <current_tcb_p>

0000843f <.LM73>:
    843f:	18 38       	puly
    8441:	18 38       	puly
    8443:	26 06       	bne	844b <.L29>

00008445 <.LM74>:
    8445:	cc 00 0c    	ldd	#c <_.xy+0x8>
    8448:	bd 8a de    	jsr	8ade <presto_fatal_error>

0000844b <.L29>:
    844b:	fe c8 39    	ldx	c839 <current_tcb_p>
    844e:	ec 01       	ldd	1,x
    8450:	fd c8 44    	std	c844 <global_new_sp>

00008453 <.LM76>:
    8453:	be c8 44    	lds	c844 <global_new_sp>

00008456 <.LM77>:
    8456:	38          	pulx

00008457 <.LM78>:
    8457:	38          	pulx

00008458 <.LM79>:
    8458:	38          	pulx

00008459 <.LM80>:
    8459:	3b          	rti

0000845a <.LM81>:
    845a:	cc 00 09    	ldd	#9 <_.xy+0x5>
    845d:	bd 8a de    	jsr	8ade <presto_fatal_error>

00008460 <.LM82>:
    8460:	39          	rts

00008461 <presto_send_message>:
    8461:	34          	des
    8462:	30          	tsx
    8463:	e7 00       	stab	0,x

00008465 <.LM84>:
    8465:	18 30       	tsy
    8467:	18 ec 05    	ldd	5,y
    846a:	37          	pshb
    846b:	36          	psha
    846c:	18 ec 03    	ldd	3,y
    846f:	37          	pshb
    8470:	36          	psha
    8471:	ce 00 00    	ldx	#0 <_.tmp>
    8474:	3c          	pshx
    8475:	3c          	pshx
    8476:	30          	tsx
    8477:	e6 08       	ldab	8,x
    8479:	bd 86 88    	jsr	8688 <msg_Create>
    847c:	4f          	clra
    847d:	5d          	tstb
    847e:	2a 01       	bpl	8481 <.L31>
    8480:	4a          	deca

00008481 <.L31>:
    8481:	38          	pulx
    8482:	38          	pulx
    8483:	38          	pulx
    8484:	38          	pulx

00008485 <.LM85>:
    8485:	31          	ins
    8486:	39          	rts

00008487 <presto_timer>:
    8487:	34          	des
    8488:	30          	tsx
    8489:	e7 00       	stab	0,x

0000848b <.LM87>:
    848b:	18 30       	tsy
    848d:	18 ec 07    	ldd	7,y
    8490:	37          	pshb
    8491:	36          	psha
    8492:	18 ec 05    	ldd	5,y
    8495:	37          	pshb
    8496:	36          	psha
    8497:	ce 00 00    	ldx	#0 <_.tmp>
    849a:	3c          	pshx
    849b:	18 30       	tsy
    849d:	18 ee 09    	ldy	9,y
    84a0:	18 3c       	pshy
    84a2:	30          	tsx
    84a3:	e6 08       	ldab	8,x
    84a5:	bd 86 88    	jsr	8688 <msg_Create>
    84a8:	4f          	clra
    84a9:	5d          	tstb
    84aa:	2a 01       	bpl	84ad <.L33>
    84ac:	4a          	deca

000084ad <.L33>:
    84ad:	38          	pulx
    84ae:	38          	pulx
    84af:	38          	pulx
    84b0:	38          	pulx

000084b1 <.LM88>:
    84b1:	31          	ins
    84b2:	39          	rts

000084b3 <presto_repeating_timer>:
    84b3:	34          	des
    84b4:	30          	tsx
    84b5:	e7 00       	stab	0,x

000084b7 <.LM90>:
    84b7:	18 30       	tsy
    84b9:	18 ec 09    	ldd	9,y
    84bc:	37          	pshb
    84bd:	36          	psha
    84be:	18 ec 07    	ldd	7,y
    84c1:	37          	pshb
    84c2:	36          	psha
    84c3:	30          	tsx
    84c4:	ee 09       	ldx	9,x
    84c6:	3c          	pshx
    84c7:	18 30       	tsy
    84c9:	18 ee 09    	ldy	9,y
    84cc:	18 3c       	pshy
    84ce:	30          	tsx
    84cf:	e6 08       	ldab	8,x
    84d1:	bd 86 88    	jsr	8688 <msg_Create>
    84d4:	4f          	clra
    84d5:	5d          	tstb
    84d6:	2a 01       	bpl	84d9 <.L35>
    84d8:	4a          	deca

000084d9 <.L35>:
    84d9:	38          	pulx
    84da:	38          	pulx
    84db:	38          	pulx
    84dc:	38          	pulx

000084dd <.LM91>:
    84dd:	31          	ins
    84de:	39          	rts

000084df <presto_mail_waiting>:
    84df:	fe c8 39    	ldx	c839 <current_tcb_p>
    84e2:	ec 0c       	ldd	12,x
    84e4:	27 03       	beq	84e9 <.L37>
    84e6:	cc 00 01    	ldd	#1 <_.tmp+0x1>

000084e9 <.L37>:
    84e9:	39          	rts

000084ea <presto_wait_for_message>:
    84ea:	3c          	pshx
    84eb:	3c          	pshx
    84ec:	3c          	pshx
    84ed:	30          	tsx
    84ee:	ed 00       	std	0,x

000084f0 <.LBB5>:
    84f0:	fe c8 39    	ldx	c839 <current_tcb_p>
    84f3:	ec 0c       	ldd	12,x
    84f5:	26 08       	bne	84ff <.L39>

000084f7 <.LM97>:
    84f7:	18 ce 00 01 	ldy	#1 <_.tmp+0x1>
    84fb:	1a ef 08    	sty	8,x

000084fe <.LM98>:
    84fe:	3f          	swi

000084ff <.L39>:
    84ff:	07          	tpa
    8500:	0f          	sei
    8501:	18 30       	tsy
    8503:	18 ed 04    	std	4,y

00008506 <.LM100>:
    8506:	fe c8 39    	ldx	c839 <current_tcb_p>
    8509:	ec 0c       	ldd	12,x
    850b:	18 ed 02    	std	2,y
    850e:	dd 02       	std	*2 <_.z>

00008510 <.LM101>:
    8510:	de 02       	ldx	*2 <_.z>
    8512:	26 06       	bne	851a <.L40>

00008514 <.LM102>:
    8514:	cc 00 10    	ldd	#10 <_.xy+0xc>
    8517:	bd 8a de    	jsr	8ade <presto_fatal_error>

0000851a <.L40>:
    851a:	18 30       	tsy
    851c:	18 ee 02    	ldy	2,y
    851f:	18 ec 02    	ldd	2,y
    8522:	1a b3 c8 39 	cpd	c839 <current_tcb_p>
    8526:	27 06       	beq	852e <.L41>

00008528 <.LM104>:
    8528:	cc 00 11    	ldd	#11 <_.xy+0xd>
    852b:	bd 8a de    	jsr	8ade <presto_fatal_error>

0000852e <.L41>:
    852e:	fe c8 39    	ldx	c839 <current_tcb_p>
    8531:	18 30       	tsy
    8533:	18 ec 02    	ldd	2,y
    8536:	1a a3 0e    	cpd	14,x
    8539:	26 0b       	bne	8546 <.L42>

0000853b <.LM106>:
    853b:	4f          	clra
    853c:	5f          	clrb
    853d:	ed 0c       	std	12,x

0000853f <.LM107>:
    853f:	fe c8 39    	ldx	c839 <current_tcb_p>
    8542:	ed 0e       	std	14,x
    8544:	20 14       	bra	855a <.L43>

00008546 <.L42>:
    8546:	fe c8 39    	ldx	c839 <current_tcb_p>
    8549:	18 df 04    	sty	*4 <_.xy>
    854c:	18 30       	tsy
    854e:	18 ee 02    	ldy	2,y
    8551:	18 ee 12    	ldy	18,y
    8554:	1a ef 0c    	sty	12,x
    8557:	18 de 04    	ldy	*4 <_.xy>

0000855a <.L43>:
    855a:	30          	tsx
    855b:	ee 00       	ldx	0,x
    855d:	27 14       	beq	8573 <.L44>
    855f:	18 30       	tsy
    8561:	df 02       	stx	*2 <_.z>
    8563:	cd ee 02    	ldx	2,y
    8566:	ec 10       	ldd	16,x
    8568:	18 de 02    	ldy	*2 <_.z>
    856b:	18 ed 02    	std	2,y
    856e:	ec 0e       	ldd	14,x
    8570:	18 ed 00    	std	0,y

00008573 <.L44>:
    8573:	fc c8 40    	ldd	c840 <free_mail_p>
    8576:	18 30       	tsy
    8578:	18 ee 02    	ldy	2,y
    857b:	18 ed 12    	std	18,y

0000857e <.LM111>:
    857e:	18 ff c8 40 	sty	c840 <free_mail_p>

00008582 <.LM112>:
    8582:	18 30       	tsy
    8584:	18 ec 04    	ldd	4,y
    8587:	06          	tap

00008588 <.LM113>:
    8588:	cd ee 02    	ldx	2,y
    858b:	4f          	clra
    858c:	e6 00       	ldab	0,x
    858e:	2a 01       	bpl	8591 <.L45>
    8590:	4a          	deca

00008591 <.L45>:
    8591:	38          	pulx
    8592:	38          	pulx
    8593:	38          	pulx
    8594:	39          	rts

00008595 <presto_get_clock>:
    8595:	8f          	xgdx

00008596 <.LM116>:
    8596:	fc c4 06    	ldd	c406 <presto_master_clock+0x6>
    8599:	ed 06       	std	6,x
    859b:	fc c4 04    	ldd	c404 <presto_master_clock+0x4>
    859e:	ed 04       	std	4,x
    85a0:	fc c4 02    	ldd	c402 <presto_master_clock+0x2>
    85a3:	ed 02       	std	2,x
    85a5:	fc c4 00    	ldd	c400 <presto_master_clock>
    85a8:	ed 00       	std	0,x

000085aa <.LM117>:
    85aa:	39          	rts

000085ab <systimer_Start>:
    85ab:	ce 10 0e    	ldx	#100e <.Ldebug_info0+0x135>
    85ae:	ec 00       	ldd	0,x
    85b0:	c3 13 88    	addd	#1388 <.Ldebug_info0+0x4af>
    85b3:	ce 10 18    	ldx	#1018 <.Ldebug_info0+0x13f>
    85b6:	ed 00       	std	0,x

000085b8 <.LM120>:
    85b8:	ce 10 22    	ldx	#1022 <.Ldebug_info0+0x149>
    85bb:	1c 00 40    	bset	0,x #$40

000085be <.LM121>:
    85be:	ce 10 23    	ldx	#1023 <.Ldebug_info0+0x14a>
    85c1:	c6 40       	ldab	#64
    85c3:	e7 00       	stab	0,x

000085c5 <.LM122>:
    85c5:	ce 10 20    	ldx	#1020 <.Ldebug_info0+0x147>
    85c8:	1d 00 c0    	bclr	0,x #$c0

000085cb <.LM123>:
    85cb:	39          	rts

000085cc <systimer_Restart>:
    85cc:	ce 10 18    	ldx	#1018 <.Ldebug_info0+0x13f>
    85cf:	ec 00       	ldd	0,x
    85d1:	c3 13 88    	addd	#1388 <.Ldebug_info0+0x4af>
    85d4:	ed 00       	std	0,x

000085d6 <.LM126>:
    85d6:	ce 10 23    	ldx	#1023 <.Ldebug_info0+0x14a>
    85d9:	c6 40       	ldab	#64
    85db:	e7 00       	stab	0,x

000085dd <.LM127>:
    85dd:	39          	rts

000085de <systimer_ISR>:
    85de:	de 00       	ldx	*0 <_.tmp>
    85e0:	3c          	pshx
    85e1:	de 02       	ldx	*2 <_.z>
    85e3:	3c          	pshx
    85e4:	de 04       	ldx	*4 <_.xy>
    85e6:	3c          	pshx

000085e7 <.LM129>:
    85e7:	ce 00 14    	ldx	#14 <_.xy+0x10>
    85ea:	3c          	pshx
    85eb:	cc c4 00    	ldd	#c400 <presto_master_clock>
    85ee:	bd 8a 53    	jsr	8a53 <clock_add_ms>

000085f1 <.LM130>:
    85f1:	8d d9       	bsr	85cc <systimer_Restart>

000085f3 <.LM131>:
    85f3:	bd 88 06    	jsr	8806 <msg_DeliverToTasks>
    85f6:	31          	ins
    85f7:	31          	ins
    85f8:	5d          	tstb
    85f9:	27 01       	beq	85fc <.L50>

000085fb <.LM132>:
    85fb:	3f          	swi

000085fc <.L50>:
    85fc:	38          	pulx
    85fd:	df 04       	stx	*4 <_.xy>
    85ff:	38          	pulx
    8600:	df 02       	stx	*2 <_.z>
    8602:	38          	pulx
    8603:	df 00       	stx	*0 <_.tmp>
    8605:	3b          	rti

00008606 <context_switch_isr>:
    8606:	de 00       	ldx	*0 <_.tmp>
    8608:	3c          	pshx
    8609:	de 02       	ldx	*2 <_.z>
    860b:	3c          	pshx
    860c:	de 04       	ldx	*4 <_.xy>
    860e:	3c          	pshx

0000860f <.LM135>:
    860f:	fe c8 39    	ldx	c839 <current_tcb_p>
    8612:	ec 01       	ldd	1,x
    8614:	1a a3 03    	cpd	3,x
    8617:	22 05       	bhi	861e <.L53>
    8619:	1a a3 05    	cpd	5,x
    861c:	24 06       	bcc	8624 <.L52>

0000861e <.L53>:
    861e:	cc 00 01    	ldd	#1 <_.tmp+0x1>
    8621:	bd 8a de    	jsr	8ade <presto_fatal_error>

00008624 <.L52>:
    8624:	fe c8 39    	ldx	c839 <current_tcb_p>
    8627:	3c          	pshx
    8628:	32          	pula
    8629:	33          	pulb
    862a:	c3 00 01    	addd	#1 <_.tmp+0x1>
    862d:	fd c4 08    	std	c408 <old_task_stack_pointer_p>

00008630 <.LM138>:
    8630:	ff c8 2f    	stx	c82f <old_tcb_p>

00008633 <.LM139>:
    8633:	8d 3b       	bsr	8670 <scheduler_FindNextReadyTask>
    8635:	8f          	xgdx
    8636:	ff c8 39    	stx	c839 <current_tcb_p>

00008639 <.LM140>:
    8639:	bc c8 2f    	cpx	c82f <old_tcb_p>
    863c:	27 28       	beq	8666 <.L54>

0000863e <.LM141>:
    863e:	ec 01       	ldd	1,x
    8640:	1a a3 03    	cpd	3,x
    8643:	22 05       	bhi	864a <.L56>
    8645:	1a a3 05    	cpd	5,x
    8648:	24 06       	bcc	8650 <.L55>

0000864a <.L56>:
    864a:	cc 00 01    	ldd	#1 <_.tmp+0x1>
    864d:	bd 8a de    	jsr	8ade <presto_fatal_error>

00008650 <.L55>:
    8650:	fe c8 39    	ldx	c839 <current_tcb_p>
    8653:	ec 01       	ldd	1,x
    8655:	fd c8 44    	std	c844 <global_new_sp>

00008658 <.LM144>:
    8658:	bf c8 46    	sts	c846 <global_old_sp>

0000865b <.LM145>:
    865b:	fe c4 08    	ldx	c408 <old_task_stack_pointer_p>
    865e:	fc c8 46    	ldd	c846 <global_old_sp>
    8661:	ed 00       	std	0,x

00008663 <.LM146>:
    8663:	be c8 44    	lds	c844 <global_new_sp>

00008666 <.L54>:
    8666:	38          	pulx
    8667:	df 04       	stx	*4 <_.xy>
    8669:	38          	pulx
    866a:	df 02       	stx	*2 <_.z>
    866c:	38          	pulx
    866d:	df 00       	stx	*0 <_.tmp>
    866f:	3b          	rti

00008670 <scheduler_FindNextReadyTask>:
    8670:	fe c8 3b    	ldx	c83b <tcb_head_p>

00008673 <.LM150>:
    8673:	27 0a       	beq	867f <.L63>

00008675 <.L62>:
    8675:	ec 08       	ldd	8,x
    8677:	26 02       	bne	867b <.L61>
    8679:	8f          	xgdx

0000867a <.LM152>:
    867a:	39          	rts

0000867b <.L61>:
    867b:	ee 0a       	ldx	10,x
    867d:	26 f6       	bne	8675 <.L62>

0000867f <.L63>:
    867f:	cc 00 07    	ldd	#7 <_.xy+0x3>
    8682:	bd 8a de    	jsr	8ade <presto_fatal_error>

00008685 <.LM155>:
    8685:	4f          	clra
    8686:	5f          	clrb

00008687 <.LBE7>:
    8687:	39          	rts

00008688 <msg_Create>:
    8688:	3c          	pshx
    8689:	3c          	pshx
    868a:	3c          	pshx
    868b:	34          	des
    868c:	30          	tsx
    868d:	e7 00       	stab	0,x

0000868f <.LBB8>:
    868f:	fc c8 40    	ldd	c840 <free_mail_p>
    8692:	26 06       	bne	869a <.L65>

00008694 <.LM159>:
    8694:	cc 00 0e    	ldd	#e <_.xy+0xa>
    8697:	bd 8a de    	jsr	8ade <presto_fatal_error>

0000869a <.L65>:
    869a:	18 30       	tsy
    869c:	18 e6 00    	ldab	0,y
    869f:	bd 89 1d    	jsr	891d <tid_to_tcbptr>
    86a2:	30          	tsx
    86a3:	ed 03       	std	3,x

000086a5 <.LM161>:
    86a5:	26 06       	bne	86ad <.L66>

000086a7 <.LM162>:
    86a7:	cc 00 0f    	ldd	#f <_.xy+0xb>
    86aa:	bd 8a de    	jsr	8ade <presto_fatal_error>

000086ad <.L66>:
    86ad:	07          	tpa
    86ae:	0f          	sei
    86af:	18 30       	tsy
    86b1:	18 ed 05    	std	5,y

000086b4 <.LM164>:
    86b4:	fe c8 40    	ldx	c840 <free_mail_p>
    86b7:	cd ef 01    	stx	1,y

000086ba <.LM165>:
    86ba:	ec 12       	ldd	18,x
    86bc:	fd c8 40    	std	c840 <free_mail_p>

000086bf <.LM166>:
    86bf:	fe c8 39    	ldx	c839 <current_tcb_p>
    86c2:	e6 00       	ldab	0,x
    86c4:	18 ee 01    	ldy	1,y
    86c7:	18 e7 01    	stab	1,y

000086ca <.LM167>:
    86ca:	30          	tsx
    86cb:	ec 03       	ldd	3,x
    86cd:	18 ed 02    	std	2,y

000086d0 <.LM168>:
    86d0:	fc c4 06    	ldd	c406 <presto_master_clock+0x6>
    86d3:	18 ed 0a    	std	10,y
    86d6:	fc c4 04    	ldd	c404 <presto_master_clock+0x4>
    86d9:	18 ed 08    	std	8,y
    86dc:	fc c4 02    	ldd	c402 <presto_master_clock+0x2>
    86df:	18 ed 06    	std	6,y
    86e2:	fc c4 00    	ldd	c400 <presto_master_clock>
    86e5:	18 ed 04    	std	4,y

000086e8 <.LM169>:
    86e8:	ec 01       	ldd	1,x
    86ea:	c3 00 04    	addd	#4 <_.xy>
    86ed:	1a ee 09    	ldy	9,x
    86f0:	18 3c       	pshy
    86f2:	bd 8a 53    	jsr	8a53 <clock_add_ms>

000086f5 <.LM170>:
    86f5:	30          	tsx
    86f6:	ec 0d       	ldd	13,x
    86f8:	ee 03       	ldx	3,x
    86fa:	ed 0c       	std	12,x

000086fc <.LM171>:
    86fc:	18 30       	tsy
    86fe:	cd ee 03    	ldx	3,y
    8701:	18 ec 11    	ldd	17,y
    8704:	ed 10       	std	16,x
    8706:	18 ec 0f    	ldd	15,y
    8709:	ed 0e       	std	14,x

0000870b <.LM172>:
    870b:	18 ec 07    	ldd	7,y
    870e:	06          	tap

0000870f <.LM173>:
    870f:	31          	ins
    8710:	31          	ins
    8711:	30          	tsx
    8712:	ee 09       	ldx	9,x
    8714:	27 09       	beq	871f <.L67>

00008716 <.LM174>:
    8716:	18 30       	tsy
    8718:	18 ec 01    	ldd	1,y
    871b:	8d 1f       	bsr	873c <msg_InsertIntoPostOffice>
    871d:	20 0f       	bra	872e <.L68>

0000871f <.L67>:
    871f:	30          	tsx
    8720:	ee 03       	ldx	3,x
    8722:	3c          	pshx
    8723:	18 30       	tsy
    8725:	18 ec 03    	ldd	3,y
    8728:	bd 87 d2    	jsr	87d2 <msg_InsertIntoTaskQueue>

0000872b <.LM176>:
    872b:	3f          	swi
    872c:	31          	ins
    872d:	31          	ins

0000872e <.L68>:
    872e:	30          	tsx
    872f:	ee 01       	ldx	1,x
    8731:	4f          	clra
    8732:	e6 00       	ldab	0,x
    8734:	2a 01       	bpl	8737 <.L69>
    8736:	4a          	deca

00008737 <.L69>:
    8737:	38          	pulx
    8738:	38          	pulx
    8739:	38          	pulx
    873a:	31          	ins
    873b:	39          	rts

0000873c <msg_InsertIntoPostOffice>:
    873c:	3c          	pshx
    873d:	3c          	pshx
    873e:	3c          	pshx
    873f:	30          	tsx
    8740:	ed 00       	std	0,x

00008742 <.LBB9>:
    8742:	07          	tpa
    8743:	0f          	sei
    8744:	ed 02       	std	2,x

00008746 <.LM181>:
    8746:	fe c8 42    	ldx	c842 <po_mail_p>
    8749:	26 11       	bne	875c <.L71>

0000874b <.LM182>:
    874b:	18 30       	tsy
    874d:	18 ee 00    	ldy	0,y
    8750:	18 ff c8 42 	sty	c842 <po_mail_p>

00008754 <.LM183>:
    8754:	18 6f 13    	clr	19,y
    8757:	18 6f 12    	clr	18,y
    875a:	20 6c       	bra	87c8 <.L72>

0000875c <.L71>:
    875c:	fc c8 42    	ldd	c842 <po_mail_p>
    875f:	c3 00 04    	addd	#4 <_.xy>
    8762:	18 30       	tsy
    8764:	cd ee 00    	ldx	0,y
    8767:	08          	inx
    8768:	08          	inx
    8769:	08          	inx
    876a:	08          	inx
    876b:	3c          	pshx
    876c:	bd 8a 76    	jsr	8a76 <clock_compare>
    876f:	31          	ins
    8770:	31          	ins
    8771:	5d          	tstb
    8772:	2b 0f       	bmi	8783 <.L73>
    8774:	27 0d       	beq	8783 <.L73>

00008776 <.LM185>:
    8776:	fc c8 42    	ldd	c842 <po_mail_p>
    8779:	30          	tsx
    877a:	ee 00       	ldx	0,x
    877c:	ed 12       	std	18,x

0000877e <.LM186>:
    877e:	ff c8 42    	stx	c842 <po_mail_p>
    8781:	20 45       	bra	87c8 <.L72>

00008783 <.L73>:
    8783:	fc c8 42    	ldd	c842 <po_mail_p>

00008786 <.LM188>:
    8786:	20 21       	bra	87a9 <.L80>

00008788 <.L79>:
    8788:	30          	tsx
    8789:	1a ee 04    	ldy	4,x
    878c:	18 ec 12    	ldd	18,y
    878f:	c3 00 04    	addd	#4 <_.xy>
    8792:	18 30       	tsy
    8794:	cd ee 00    	ldx	0,y
    8797:	08          	inx
    8798:	08          	inx
    8799:	08          	inx
    879a:	08          	inx
    879b:	3c          	pshx
    879c:	bd 8a 76    	jsr	8a76 <clock_compare>
    879f:	31          	ins
    87a0:	31          	ins
    87a1:	5d          	tstb
    87a2:	2e 0f       	bgt	87b3 <.L76>

000087a4 <.LM190>:
    87a4:	30          	tsx
    87a5:	ee 04       	ldx	4,x
    87a7:	ec 12       	ldd	18,x

000087a9 <.L80>:
    87a9:	30          	tsx
    87aa:	ed 04       	std	4,x
    87ac:	18 8f       	xgdy
    87ae:	cd ee 12    	ldx	18,y
    87b1:	26 d5       	bne	8788 <.L79>

000087b3 <.L76>:
    87b3:	30          	tsx
    87b4:	ee 04       	ldx	4,x
    87b6:	ec 12       	ldd	18,x
    87b8:	30          	tsx
    87b9:	ee 00       	ldx	0,x
    87bb:	ed 12       	std	18,x

000087bd <.LM192>:
    87bd:	18 30       	tsy
    87bf:	cd ee 00    	ldx	0,y
    87c2:	18 ee 04    	ldy	4,y
    87c5:	cd ef 12    	stx	18,y

000087c8 <.L72>:
    87c8:	18 30       	tsy
    87ca:	18 ec 02    	ldd	2,y
    87cd:	06          	tap

000087ce <.LM194>:
    87ce:	38          	pulx
    87cf:	38          	pulx
    87d0:	38          	pulx
    87d1:	39          	rts

000087d2 <msg_InsertIntoTaskQueue>:
    87d2:	3c          	pshx
    87d3:	dd 02       	std	*2 <_.z>
    87d5:	30          	tsx
    87d6:	1a ee 04    	ldy	4,x

000087d9 <.LBB11>:
    87d9:	07          	tpa
    87da:	0f          	sei
    87db:	ed 00       	std	0,x

000087dd <.LM197>:
    87dd:	cd ee 0c    	ldx	12,y
    87e0:	26 07       	bne	87e9 <.L82>

000087e2 <.LM198>:
    87e2:	dc 02       	ldd	*2 <_.z>
    87e4:	18 ed 0c    	std	12,y

000087e7 <.LM199>:
    87e7:	20 0b       	bra	87f4 <.L84>

000087e9 <.L82>:
    87e9:	cd ee 0e    	ldx	14,y
    87ec:	dd 04       	std	*4 <_.xy>
    87ee:	dc 02       	ldd	*2 <_.z>
    87f0:	ed 12       	std	18,x

000087f2 <.LM201>:
    87f2:	dc 04       	ldd	*4 <_.xy>

000087f4 <.L84>:
    87f4:	de 02       	ldx	*2 <_.z>
    87f6:	cd ef 0e    	stx	14,y

000087f9 <.LM202>:
    87f9:	4f          	clra
    87fa:	5f          	clrb
    87fb:	ed 12       	std	18,x

000087fd <.LM203>:
    87fd:	18 ed 08    	std	8,y

00008800 <.LM204>:
    8800:	30          	tsx
    8801:	ec 00       	ldd	0,x
    8803:	06          	tap

00008804 <.LM205>:
    8804:	38          	pulx
    8805:	39          	rts

00008806 <msg_DeliverToTasks>:
    8806:	30          	tsx
    8807:	8f          	xgdx
    8808:	c3 ff f7    	addd	#fff7 <__normvect_start+0x21>
    880b:	8f          	xgdx
    880c:	35          	txs

0000880d <.LM207>:
    880d:	30          	tsx
    880e:	6f 00       	clr	0,x

00008810 <.LM208>:
    8810:	07          	tpa
    8811:	0f          	sei
    8812:	ed 05       	std	5,x

00008814 <.LM209>:
    8814:	7e 88 eb    	jmp	88eb <.L86>

00008817 <.L93>:
    8817:	fe c8 42    	ldx	c842 <po_mail_p>
    881a:	dd 04       	std	*4 <_.xy>
    881c:	ec 02       	ldd	2,x
    881e:	18 30       	tsy
    8820:	dd 02       	std	*2 <_.z>
    8822:	dc 04       	ldd	*4 <_.xy>
    8824:	de 02       	ldx	*2 <_.z>
    8826:	cd ef 03    	stx	3,y

00008829 <.LM211>:
    8829:	26 06       	bne	8831 <.L90>
    882b:	cc 00 04    	ldd	#4 <_.xy>
    882e:	bd 8a de    	jsr	8ade <presto_fatal_error>

00008831 <.L90>:
    8831:	df 04       	stx	*4 <_.xy>
    8833:	fe c8 42    	ldx	c842 <po_mail_p>
    8836:	18 30       	tsy
    8838:	cd ef 01    	stx	1,y

0000883b <.LM213>:
    883b:	df 02       	stx	*2 <_.z>
    883d:	ee 12       	ldx	18,x
    883f:	ff c8 42    	stx	c842 <po_mail_p>

00008842 <.LM214>:
    8842:	de 02       	ldx	*2 <_.z>
    8844:	ec 0c       	ldd	12,x
    8846:	26 03       	bne	884b <.LBB13>
    8848:	7e 88 d5    	jmp	88d5 <.L91>

0000884b <.LBB13>:
    884b:	fe c8 40    	ldx	c840 <free_mail_p>
    884e:	26 06       	bne	8856 <.L92>

00008850 <.LM216>:
    8850:	cc 00 03    	ldd	#3 <_.z+0x1>
    8853:	bd 8a de    	jsr	8ade <presto_fatal_error>

00008856 <.L92>:
    8856:	df 04       	stx	*4 <_.xy>
    8858:	fe c8 40    	ldx	c840 <free_mail_p>
    885b:	18 30       	tsy
    885d:	cd ef 07    	stx	7,y

00008860 <.LM218>:
    8860:	df 02       	stx	*2 <_.z>
    8862:	ee 12       	ldx	18,x
    8864:	ff c8 40    	stx	c840 <free_mail_p>

00008867 <.LM219>:
    8867:	18 ee 01    	ldy	1,y
    886a:	18 e6 01    	ldab	1,y
    886d:	de 02       	ldx	*2 <_.z>
    886f:	e7 01       	stab	1,x

00008871 <.LM220>:
    8871:	cd ee 02    	ldx	2,y
    8874:	18 df 04    	sty	*4 <_.xy>
    8877:	18 de 02    	ldy	*2 <_.z>
    887a:	cd ef 02    	stx	2,y

0000887d <.LM221>:
    887d:	18 de 04    	ldy	*4 <_.xy>
    8880:	18 ec 0a    	ldd	10,y
    8883:	de 02       	ldx	*2 <_.z>
    8885:	ed 0a       	std	10,x
    8887:	18 ec 08    	ldd	8,y
    888a:	ed 08       	std	8,x
    888c:	18 ec 06    	ldd	6,y
    888f:	ed 06       	std	6,x
    8891:	18 ec 04    	ldd	4,y
    8894:	ed 04       	std	4,x

00008896 <.LM222>:
    8896:	18 30       	tsy
    8898:	18 ec 07    	ldd	7,y
    889b:	c3 00 04    	addd	#4 <_.xy>
    889e:	cd ee 01    	ldx	1,y
    88a1:	ee 0c       	ldx	12,x
    88a3:	3c          	pshx
    88a4:	bd 8a 53    	jsr	8a53 <clock_add_ms>

000088a7 <.LM223>:
    88a7:	18 30       	tsy
    88a9:	18 ee 03    	ldy	3,y
    88ac:	18 ec 0c    	ldd	12,y
    88af:	18 30       	tsy
    88b1:	18 ee 09    	ldy	9,y
    88b4:	18 ed 0c    	std	12,y

000088b7 <.LM224>:
    88b7:	18 30       	tsy
    88b9:	18 ec 09    	ldd	9,y
    88bc:	dd 02       	std	*2 <_.z>
    88be:	cd ee 03    	ldx	3,y
    88c1:	ec 10       	ldd	16,x
    88c3:	18 de 02    	ldy	*2 <_.z>
    88c6:	18 ed 10    	std	16,y
    88c9:	ec 0e       	ldd	14,x
    88cb:	18 ed 0e    	std	14,y

000088ce <.LM225>:
    88ce:	18 8f       	xgdy
    88d0:	bd 87 3c    	jsr	873c <msg_InsertIntoPostOffice>

000088d3 <.LBE13>:
    88d3:	31          	ins
    88d4:	31          	ins

000088d5 <.L91>:
    88d5:	18 30       	tsy
    88d7:	18 ee 03    	ldy	3,y
    88da:	18 3c       	pshy
    88dc:	df 04       	stx	*4 <_.xy>
    88de:	30          	tsx
    88df:	ec 03       	ldd	3,x
    88e1:	de 04       	ldx	*4 <_.xy>
    88e3:	bd 87 d2    	jsr	87d2 <msg_InsertIntoTaskQueue>

000088e6 <.LM227>:
    88e6:	30          	tsx
    88e7:	6c 02       	inc	2,x
    88e9:	31          	ins
    88ea:	31          	ins

000088eb <.L86>:
    88eb:	fc c8 42    	ldd	c842 <po_mail_p>
    88ee:	27 19       	beq	8909 <.L87>
    88f0:	c3 00 04    	addd	#4 <_.xy>
    88f3:	18 ce c4 00 	ldy	#c400 <presto_master_clock>
    88f7:	18 3c       	pshy
    88f9:	bd 8a 76    	jsr	8a76 <clock_compare>
    88fc:	31          	ins
    88fd:	31          	ins
    88fe:	5d          	tstb
    88ff:	2a 03       	bpl	8904 <.L86+0x19>
    8901:	7e 88 17    	jmp	8817 <.L93>
    8904:	26 03       	bne	8909 <.L87>
    8906:	7e 88 17    	jmp	8817 <.L93>

00008909 <.L87>:
    8909:	18 30       	tsy
    890b:	18 ec 05    	ldd	5,y
    890e:	06          	tap

0000890f <.LM229>:
    890f:	4f          	clra
    8910:	18 e6 00    	ldab	0,y

00008913 <.LBE12>:
    8913:	30          	tsx
    8914:	8f          	xgdx
    8915:	c3 00 09    	addd	#9 <_.xy+0x5>
    8918:	8f          	xgdx
    8919:	35          	txs
    891a:	39          	rts

0000891b <idle_task>:
    891b:	20 fe       	bra	891b <idle_task>

0000891d <tid_to_tcbptr>:
    891d:	34          	des
    891e:	30          	tsx
    891f:	e7 00       	stab	0,x

00008921 <.LM235>:
    8921:	c1 0c       	cmpb	#12
    8923:	23 06       	bls	892b <.L99>
    8925:	cc 00 0d    	ldd	#d <_.xy+0x9>
    8928:	bd 8a de    	jsr	8ade <presto_fatal_error>

0000892b <.L99>:
    892b:	30          	tsx
    892c:	4f          	clra
    892d:	e6 00       	ldab	0,x
    892f:	05          	asld
    8930:	05          	asld
    8931:	05          	asld
    8932:	05          	asld
    8933:	c3 c4 47    	addd	#c447 <tcb_list+0x8>
    8936:	8f          	xgdx
    8937:	ee 00       	ldx	0,x
    8939:	8c 00 02    	cpx	#2 <_.z>
    893c:	26 04       	bne	8942 <.L100>
    893e:	4f          	clra
    893f:	5f          	clrb
    8940:	20 0b       	bra	894d <.L98>

00008942 <.L100>:
    8942:	30          	tsx
    8943:	4f          	clra
    8944:	e6 00       	ldab	0,x
    8946:	05          	asld
    8947:	05          	asld
    8948:	05          	asld
    8949:	05          	asld
    894a:	c3 c4 3f    	addd	#c43f <tcb_list>

0000894d <.L98>:
    894d:	31          	ins
    894e:	39          	rts

0000894f <premain>:
    894f:	0f          	sei

00008950 <.LM3>:
    8950:	ce 10 3d    	ldx	#103d <.Ldebug_info0+0x164>
    8953:	c6 01       	ldab	#1
    8955:	e7 00       	stab	0,x

00008957 <.LM4>:
    8957:	ce 10 24    	ldx	#1024 <.Ldebug_info0+0x14b>
    895a:	c6 06       	ldab	#6
    895c:	e7 00       	stab	0,x

0000895e <.LM5>:
    895e:	ce 10 39    	ldx	#1039 <.Ldebug_info0+0x160>
    8961:	c6 a3       	ldab	#163
    8963:	e7 00       	stab	0,x

00008965 <.LM6>:
    8965:	ce 10 02    	ldx	#1002 <.Ldebug_info0+0x129>
    8968:	c6 03       	ldab	#3
    896a:	e7 00       	stab	0,x

0000896c <.LM7>:
    896c:	ce 10 2d    	ldx	#102d <.Ldebug_info0+0x154>
    896f:	5f          	clrb
    8970:	e7 00       	stab	0,x

00008972 <.LM8>:
    8972:	ce 10 28    	ldx	#1028 <.Ldebug_info0+0x14f>
    8975:	c6 04       	ldab	#4
    8977:	e7 00       	stab	0,x

00008979 <.LM9>:
    8979:	ce 10 20    	ldx	#1020 <.Ldebug_info0+0x147>
    897c:	5f          	clrb
    897d:	e7 00       	stab	0,x

0000897f <.LM10>:
    897f:	ce 10 21    	ldx	#1021 <.Ldebug_info0+0x148>
    8982:	e7 00       	stab	0,x

00008984 <.LM11>:
    8984:	ce 10 22    	ldx	#1022 <.Ldebug_info0+0x149>
    8987:	e7 00       	stab	0,x

00008989 <.LM12>:
    8989:	ce 10 3c    	ldx	#103c <.Ldebug_info0+0x163>
    898c:	c6 25       	ldab	#37
    898e:	e7 00       	stab	0,x

00008990 <.LM13>:
    8990:	39          	rts

00008991 <exit>:
    8991:	20 fe       	bra	8991 <exit>

00008993 <_start>:
    8993:	8e b5 ff    	lds	#b5ff <init_sp>
    8996:	bd 89 4f    	jsr	894f <premain>
    8999:	4f          	clra
    899a:	ce c0 00    	ldx	#c000 <__specvect_end>

0000899d <init_loop>:
    899d:	8c c8 31    	cpx	#c831 <__bss_end>
    89a0:	27 05       	beq	89a7 <init_done>
    89a2:	a7 00       	staa	0,x
    89a4:	08          	inx
    89a5:	20 f6       	bra	899d <init_loop>

000089a7 <init_done>:
    89a7:	ce 8b 59    	ldx	#8b59 <__idata_start>
    89aa:	18 ce c8 31 	ldy	#c831 <__bss_end>

000089ae <copy_loop>:
    89ae:	8c 8b 70    	cpx	#8b70 <__idata_end>
    89b1:	27 0a       	beq	89bd <copy_done>
    89b3:	e6 00       	ldab	0,x
    89b5:	18 e7 00    	stab	0,y
    89b8:	08          	inx
    89b9:	18 08       	iny
    89bb:	20 f1       	bra	89ae <copy_loop>

000089bd <copy_done>:
    89bd:	bd 81 1a    	jsr	811a <main>

000089c0 <_postmain>:
    89c0:	20 fe       	bra	89c0 <_postmain>

000089c2 <clock_add>:
    89c2:	18 8f       	xgdy

000089c4 <.LM2>:
    89c4:	30          	tsx
    89c5:	ec 06       	ldd	6,x
    89c7:	18 e3 00    	addd	0,y
    89ca:	18 ed 00    	std	0,y

000089cd <.LM3>:
    89cd:	1a 83 03 e7 	cpd	#3e7 <.Ldebug_abbrev0+0x2f>
    89d1:	23 17       	bls	89ea <.L14>
    89d3:	8f          	xgdx

000089d4 <.L5>:
    89d4:	8f          	xgdx
    89d5:	c3 fc 18    	addd	#fc18 <__comment_end+0x32fe>
    89d8:	8f          	xgdx

000089d9 <.LM5>:
    89d9:	18 ec 02    	ldd	2,y
    89dc:	c3 00 01    	addd	#1 <_.tmp+0x1>
    89df:	18 ed 02    	std	2,y
    89e2:	8c 03 e7    	cpx	#3e7 <.Ldebug_abbrev0+0x2f>
    89e5:	22 ed       	bhi	89d4 <.L5>
    89e7:	cd ef 00    	stx	0,y

000089ea <.L14>:
    89ea:	30          	tsx
    89eb:	ec 04       	ldd	4,x
    89ed:	18 e3 02    	addd	2,y
    89f0:	18 ed 02    	std	2,y

000089f3 <.LM7>:
    89f3:	1a 83 03 e7 	cpd	#3e7 <.Ldebug_abbrev0+0x2f>
    89f7:	23 17       	bls	8a10 <.L15>
    89f9:	8f          	xgdx

000089fa <.L9>:
    89fa:	8f          	xgdx
    89fb:	c3 fc 18    	addd	#fc18 <__comment_end+0x32fe>
    89fe:	8f          	xgdx

000089ff <.LM9>:
    89ff:	18 ec 04    	ldd	4,y
    8a02:	c3 00 01    	addd	#1 <_.tmp+0x1>
    8a05:	18 ed 04    	std	4,y
    8a08:	8c 03 e7    	cpx	#3e7 <.Ldebug_abbrev0+0x2f>
    8a0b:	22 ed       	bhi	89fa <.L9>
    8a0d:	cd ef 02    	stx	2,y

00008a10 <.L15>:
    8a10:	30          	tsx
    8a11:	ec 02       	ldd	2,x
    8a13:	18 e3 04    	addd	4,y
    8a16:	18 ed 04    	std	4,y

00008a19 <.LM11>:
    8a19:	1a 83 0e 0f 	cpd	#e0f <.Ldebug_info0+0x70b>
    8a1d:	23 17       	bls	8a36 <.L16>
    8a1f:	8f          	xgdx

00008a20 <.L13>:
    8a20:	8f          	xgdx
    8a21:	c3 f1 f0    	addd	#f1f0 <__comment_end+0x28d6>
    8a24:	8f          	xgdx

00008a25 <.LM13>:
    8a25:	18 ec 06    	ldd	6,y
    8a28:	c3 00 01    	addd	#1 <_.tmp+0x1>
    8a2b:	18 ed 06    	std	6,y
    8a2e:	8c 0e 0f    	cpx	#e0f <.Ldebug_info0+0x70b>
    8a31:	22 ed       	bhi	8a20 <.L13>
    8a33:	cd ef 04    	stx	4,y

00008a36 <.L16>:
    8a36:	39          	rts

00008a37 <clock_reset>:
    8a37:	8f          	xgdx

00008a38 <.LM16>:
    8a38:	4f          	clra
    8a39:	5f          	clrb
    8a3a:	ed 00       	std	0,x

00008a3c <.LM17>:
    8a3c:	ed 02       	std	2,x

00008a3e <.LM18>:
    8a3e:	ed 04       	std	4,x

00008a40 <.LM19>:
    8a40:	ed 06       	std	6,x

00008a42 <.LM20>:
    8a42:	39          	rts

00008a43 <clock_add_us>:
    8a43:	30          	tsx
    8a44:	ee 02       	ldx	2,x
    8a46:	3c          	pshx
    8a47:	ce 00 00    	ldx	#0 <_.tmp>
    8a4a:	3c          	pshx
    8a4b:	3c          	pshx
    8a4c:	bd 89 c2    	jsr	89c2 <clock_add>
    8a4f:	38          	pulx
    8a50:	38          	pulx
    8a51:	38          	pulx

00008a52 <.LM23>:
    8a52:	39          	rts

00008a53 <clock_add_ms>:
    8a53:	ce 00 00    	ldx	#0 <_.tmp>
    8a56:	3c          	pshx
    8a57:	18 30       	tsy
    8a59:	18 ee 04    	ldy	4,y
    8a5c:	18 3c       	pshy
    8a5e:	3c          	pshx
    8a5f:	bd 89 c2    	jsr	89c2 <clock_add>
    8a62:	38          	pulx
    8a63:	38          	pulx
    8a64:	38          	pulx

00008a65 <.LM26>:
    8a65:	39          	rts

00008a66 <clock_add_sec>:
    8a66:	ce 00 00    	ldx	#0 <_.tmp>
    8a69:	3c          	pshx
    8a6a:	3c          	pshx
    8a6b:	30          	tsx
    8a6c:	ee 06       	ldx	6,x
    8a6e:	3c          	pshx
    8a6f:	bd 89 c2    	jsr	89c2 <clock_add>
    8a72:	38          	pulx
    8a73:	38          	pulx
    8a74:	38          	pulx

00008a75 <.LM29>:
    8a75:	39          	rts

00008a76 <clock_compare>:
    8a76:	18 8f       	xgdy
    8a78:	30          	tsx
    8a79:	ee 02       	ldx	2,x

00008a7b <.LM31>:
    8a7b:	18 ec 06    	ldd	6,y
    8a7e:	1a a3 06    	cpd	6,x
    8a81:	24 04       	bcc	8a87 <.L25>
    8a83:	cc ff ff    	ldd	#ffff <__normvect_start+0x29>

00008a86 <.LM32>:
    8a86:	39          	rts

00008a87 <.L25>:
    8a87:	18 ec 06    	ldd	6,y
    8a8a:	1a a3 06    	cpd	6,x
    8a8d:	23 04       	bls	8a93 <.L26>
    8a8f:	cc 00 01    	ldd	#1 <_.tmp+0x1>

00008a92 <.LM34>:
    8a92:	39          	rts

00008a93 <.L26>:
    8a93:	18 ec 04    	ldd	4,y
    8a96:	1a a3 04    	cpd	4,x
    8a99:	24 04       	bcc	8a9f <.L27>
    8a9b:	cc ff ff    	ldd	#ffff <__normvect_start+0x29>

00008a9e <.LM36>:
    8a9e:	39          	rts

00008a9f <.L27>:
    8a9f:	18 ec 04    	ldd	4,y
    8aa2:	1a a3 04    	cpd	4,x
    8aa5:	23 04       	bls	8aab <.L28>
    8aa7:	cc 00 01    	ldd	#1 <_.tmp+0x1>

00008aaa <.LM38>:
    8aaa:	39          	rts

00008aab <.L28>:
    8aab:	18 ec 02    	ldd	2,y
    8aae:	1a a3 02    	cpd	2,x
    8ab1:	24 04       	bcc	8ab7 <.L29>
    8ab3:	cc ff ff    	ldd	#ffff <__normvect_start+0x29>

00008ab6 <.LM40>:
    8ab6:	39          	rts

00008ab7 <.L29>:
    8ab7:	18 ec 02    	ldd	2,y
    8aba:	1a a3 02    	cpd	2,x
    8abd:	23 04       	bls	8ac3 <.L30>
    8abf:	cc 00 01    	ldd	#1 <_.tmp+0x1>

00008ac2 <.LM42>:
    8ac2:	39          	rts

00008ac3 <.L30>:
    8ac3:	18 ec 00    	ldd	0,y
    8ac6:	1a a3 00    	cpd	0,x
    8ac9:	24 04       	bcc	8acf <.L31>
    8acb:	cc ff ff    	ldd	#ffff <__normvect_start+0x29>

00008ace <.LM44>:
    8ace:	39          	rts

00008acf <.L31>:
    8acf:	18 ec 00    	ldd	0,y
    8ad2:	1a a3 00    	cpd	0,x
    8ad5:	23 04       	bls	8adb <.L32>
    8ad7:	cc 00 01    	ldd	#1 <_.tmp+0x1>

00008ada <.LM46>:
    8ada:	39          	rts

00008adb <.L32>:
    8adb:	4f          	clra
    8adc:	5f          	clrb

00008add <.LM48>:
    8add:	39          	rts

00008ade <presto_fatal_error>:
    8ade:	3c          	pshx
    8adf:	3c          	pshx
    8ae0:	3c          	pshx
    8ae1:	30          	tsx
    8ae2:	ed 03       	std	3,x

00008ae4 <.LBB2>:
    8ae4:	0f          	sei

00008ae5 <.LM3>:
    8ae5:	18 df 04    	sty	*4 <_.xy>
    8ae8:	18 ce 10 00 	ldy	#1000 <.Ldebug_info0+0x127>
    8aec:	ca 0f       	orab	#15
    8aee:	e7 02       	stab	2,x
    8af0:	18 df 02    	sty	*2 <_.z>
    8af3:	18 de 04    	ldy	*4 <_.xy>

00008af6 <.L11>:
    8af6:	df 04       	stx	*4 <_.xy>
    8af8:	de 02       	ldx	*2 <_.z>
    8afa:	e6 00       	ldab	0,x
    8afc:	c8 08       	eorb	#8
    8afe:	e7 00       	stab	0,x

00008b00 <.LM5>:
    8b00:	18 30       	tsy
    8b02:	18 6a 01    	dec	1,y
    8b05:	de 04       	ldx	*4 <_.xy>
    8b07:	18 e6 01    	ldab	1,y
    8b0a:	27 ea       	beq	8af6 <.L11>
    8b0c:	ce 7f ff    	ldx	#7fff <__debug_end+0x3ffa>
    8b0f:	18 e6 04    	ldab	4,y
    8b12:	58          	aslb
    8b13:	58          	aslb
    8b14:	58          	aslb
    8b15:	58          	aslb
    8b16:	18 e7 05    	stab	5,y

00008b19 <.L10>:
    8b19:	18 30       	tsy
    8b1b:	18 ec 00    	ldd	0,y
    8b1e:	c5 01       	bitb	#1
    8b20:	27 05       	beq	8b27 <.L8>
    8b22:	18 e6 05    	ldab	5,y
    8b25:	20 05       	bra	8b2c <.L12>

00008b27 <.L8>:
    8b27:	18 30       	tsy
    8b29:	18 e6 02    	ldab	2,y

00008b2c <.L12>:
    8b2c:	e7 00       	stab	0,x
    8b2e:	18 30       	tsy
    8b30:	18 6a 01    	dec	1,y
    8b33:	26 e4       	bne	8b19 <.L10>
    8b35:	20 bf       	bra	8af6 <.L11>

00008b37 <inert_isr>:
    8b37:	3b          	rti
    8b38:	39          	rts

00008b39 <illop_isr>:
    8b39:	cc 00 05    	ldd	#5 <_.xy+0x1>
    8b3c:	bd 8a de    	jsr	8ade <presto_fatal_error>
    8b3f:	39          	rts

00008b40 <error_isr>:
    8b40:	cc 00 06    	ldd	#6 <_.xy+0x2>
    8b43:	bd 8a de    	jsr	8ade <presto_fatal_error>
    8b46:	39          	rts

00008b47 <set_interrupt>:
    8b47:	c1 14       	cmpb	#20
    8b49:	22 0d       	bhi	8b58 <.L5>

00008b4b <.LM9>:
    8b4b:	4f          	clra
    8b4c:	05          	asld
    8b4d:	c3 ff d6    	addd	#ffd6 <__normvect_start>
    8b50:	30          	tsx
    8b51:	1a ee 02    	ldy	2,x
    8b54:	8f          	xgdx
    8b55:	1a ef 00    	sty	0,x

00008b58 <.L5>:
    8b58:	39          	rts
